
build/ch.elf:     file format elf32-littlearm


Disassembly of section .text:

00200200 <Reset_Handler>:
  200200:	b672      	cpsid	i
  200202:	4826      	ldr	r0, [pc, #152]	; (20029c <endfiniloop+0x6>)
  200204:	f380 8809 	msr	PSP, r0
  200208:	4825      	ldr	r0, [pc, #148]	; (2002a0 <endfiniloop+0xa>)
  20020a:	f64e 5108 	movw	r1, #60680	; 0xed08
  20020e:	f2ce 0100 	movt	r1, #57344	; 0xe000
  200212:	6008      	str	r0, [r1, #0]
  200214:	2002      	movs	r0, #2
  200216:	f380 8814 	msr	CONTROL, r0
  20021a:	f3bf 8f6f 	isb	sy
  20021e:	f001 fa2f 	bl	201680 <__core_init>
  200222:	f000 fdc5 	bl	200db0 <__early_init>
  200226:	f04f 3055 	mov.w	r0, #1431655765	; 0x55555555
  20022a:	491e      	ldr	r1, [pc, #120]	; (2002a4 <endfiniloop+0xe>)
  20022c:	4a1e      	ldr	r2, [pc, #120]	; (2002a8 <endfiniloop+0x12>)

0020022e <msloop>:
  20022e:	4291      	cmp	r1, r2
  200230:	bf3c      	itt	cc
  200232:	f841 0b04 	strcc.w	r0, [r1], #4
  200236:	e7fa      	bcc.n	20022e <msloop>
  200238:	491c      	ldr	r1, [pc, #112]	; (2002ac <endfiniloop+0x16>)
  20023a:	4a18      	ldr	r2, [pc, #96]	; (20029c <endfiniloop+0x6>)

0020023c <psloop>:
  20023c:	4291      	cmp	r1, r2
  20023e:	bf3c      	itt	cc
  200240:	f841 0b04 	strcc.w	r0, [r1], #4
  200244:	e7fa      	bcc.n	20023c <psloop>
  200246:	491a      	ldr	r1, [pc, #104]	; (2002b0 <endfiniloop+0x1a>)
  200248:	4a1a      	ldr	r2, [pc, #104]	; (2002b4 <endfiniloop+0x1e>)
  20024a:	4b1b      	ldr	r3, [pc, #108]	; (2002b8 <endfiniloop+0x22>)

0020024c <dloop>:
  20024c:	429a      	cmp	r2, r3
  20024e:	bf3e      	ittt	cc
  200250:	f851 0b04 	ldrcc.w	r0, [r1], #4
  200254:	f842 0b04 	strcc.w	r0, [r2], #4
  200258:	e7f8      	bcc.n	20024c <dloop>
  20025a:	2000      	movs	r0, #0
  20025c:	4917      	ldr	r1, [pc, #92]	; (2002bc <endfiniloop+0x26>)
  20025e:	4a18      	ldr	r2, [pc, #96]	; (2002c0 <endfiniloop+0x2a>)

00200260 <bloop>:
  200260:	4291      	cmp	r1, r2
  200262:	bf3c      	itt	cc
  200264:	f841 0b04 	strcc.w	r0, [r1], #4
  200268:	e7fa      	bcc.n	200260 <bloop>
  20026a:	f001 f9c9 	bl	201600 <__init_ram_areas>
  20026e:	f001 f9ff 	bl	201670 <__late_init>
  200272:	4c14      	ldr	r4, [pc, #80]	; (2002c4 <endfiniloop+0x2e>)
  200274:	4d14      	ldr	r5, [pc, #80]	; (2002c8 <endfiniloop+0x32>)

00200276 <initloop>:
  200276:	42ac      	cmp	r4, r5
  200278:	da03      	bge.n	200282 <endinitloop>
  20027a:	f854 1b04 	ldr.w	r1, [r4], #4
  20027e:	4788      	blx	r1
  200280:	e7f9      	b.n	200276 <initloop>

00200282 <endinitloop>:
  200282:	f001 fa75 	bl	201770 <main>
  200286:	4c11      	ldr	r4, [pc, #68]	; (2002cc <endfiniloop+0x36>)
  200288:	4d11      	ldr	r5, [pc, #68]	; (2002d0 <endfiniloop+0x3a>)

0020028a <finiloop>:
  20028a:	42ac      	cmp	r4, r5
  20028c:	da03      	bge.n	200296 <endfiniloop>
  20028e:	f854 1b04 	ldr.w	r1, [r4], #4
  200292:	4788      	blx	r1
  200294:	e7f9      	b.n	20028a <finiloop>

00200296 <endfiniloop>:
  200296:	f001 b9e3 	b.w	201660 <__default_exit>
  20029a:	0000      	.short	0x0000
  20029c:	20000800 	.word	0x20000800
  2002a0:	00200000 	.word	0x00200000
  2002a4:	20000000 	.word	0x20000000
  2002a8:	20000400 	.word	0x20000400
  2002ac:	20000400 	.word	0x20000400
  2002b0:	0800290c 	.word	0x0800290c
  2002b4:	20020000 	.word	0x20020000
  2002b8:	20020000 	.word	0x20020000
  2002bc:	20000800 	.word	0x20000800
  2002c0:	20000d34 	.word	0x20000d34
  2002c4:	00200200 	.word	0x00200200
  2002c8:	00200200 	.word	0x00200200
  2002cc:	00200200 	.word	0x00200200
  2002d0:	00200200 	.word	0x00200200

002002d4 <_port_switch>:
  2002d4:	e92d 4ff0 	stmdb	sp!, {r4, r5, r6, r7, r8, r9, sl, fp, lr}
  2002d8:	f8c1 d00c 	str.w	sp, [r1, #12]
  2002dc:	f8d0 d00c 	ldr.w	sp, [r0, #12]
  2002e0:	e8bd 8ff0 	ldmia.w	sp!, {r4, r5, r6, r7, r8, r9, sl, fp, pc}

002002e4 <_port_thread_start>:
  2002e4:	2300      	movs	r3, #0
  2002e6:	f383 8811 	msr	BASEPRI, r3
  2002ea:	4628      	mov	r0, r5
  2002ec:	47a0      	blx	r4
  2002ee:	2000      	movs	r0, #0
  2002f0:	f001 f95e 	bl	2015b0 <chThdExit>

002002f4 <_port_switch_from_isr>:
  2002f4:	f000 fe74 	bl	200fe0 <chSchDoReschedule>

002002f8 <_port_exit_from_isr>:
  2002f8:	df00      	svc	0
  2002fa:	e7fe      	b.n	2002fa <_port_exit_from_isr+0x2>
  2002fc:	0000      	movs	r0, r0
	...

00200300 <notify7.lto_priv.45>:

#if STM32_SERIAL_USE_UART7 || defined(__DOXYGEN__)
static void notify7(io_queue_t *qp) {

  (void)qp;
  UART7->CR1 |= USART_CR1_TXEIE;
  200300:	4a02      	ldr	r2, [pc, #8]	; (20030c <notify7.lto_priv.45+0xc>)
  200302:	6813      	ldr	r3, [r2, #0]
  200304:	f043 0380 	orr.w	r3, r3, #128	; 0x80
  200308:	6013      	str	r3, [r2, #0]
  20030a:	4770      	bx	lr
  20030c:	40007800 	.word	0x40007800

00200310 <icu_lld_serve_interrupt>:
 *
 * @param[in] icup      pointer to the @p ICUDriver object
 *
 * @notapi
 */
void icu_lld_serve_interrupt(ICUDriver *icup) {
  200310:	b538      	push	{r3, r4, r5, lr}
  uint32_t sr;

  sr  = icup->tim->SR;
  200312:	68c3      	ldr	r3, [r0, #12]
void icu_lld_serve_interrupt(ICUDriver *icup) {
  200314:	4605      	mov	r5, r0
  sr &= icup->tim->DIER & STM32_TIM_DIER_IRQ_MASK;
  icup->tim->SR = ~sr;
  if (icup->config->channel == ICU_CHANNEL_1) {
  200316:	6841      	ldr	r1, [r0, #4]
  sr  = icup->tim->SR;
  200318:	691c      	ldr	r4, [r3, #16]
  sr &= icup->tim->DIER & STM32_TIM_DIER_IRQ_MASK;
  20031a:	68da      	ldr	r2, [r3, #12]
  20031c:	4014      	ands	r4, r2
  20031e:	b2e2      	uxtb	r2, r4
  icup->tim->SR = ~sr;
  200320:	43d2      	mvns	r2, r2
  200322:	611a      	str	r2, [r3, #16]
  if (icup->config->channel == ICU_CHANNEL_1) {
  200324:	7d0b      	ldrb	r3, [r1, #20]
  200326:	b94b      	cbnz	r3, 20033c <icu_lld_serve_interrupt+0x2c>
    if ((sr & STM32_TIM_SR_CC2IF) != 0)
  200328:	0763      	lsls	r3, r4, #29
  20032a:	d52b      	bpl.n	200384 <icu_lld_serve_interrupt+0x74>
      _icu_isr_invoke_width_cb(icup);
  20032c:	7803      	ldrb	r3, [r0, #0]
  20032e:	2b04      	cmp	r3, #4
  200330:	d025      	beq.n	20037e <icu_lld_serve_interrupt+0x6e>
    if ((sr & STM32_TIM_SR_CC1IF) != 0)
  200332:	07a1      	lsls	r1, r4, #30
  200334:	d409      	bmi.n	20034a <icu_lld_serve_interrupt+0x3a>
    if ((sr & STM32_TIM_SR_CC1IF) != 0)
      _icu_isr_invoke_width_cb(icup);
    if ((sr & STM32_TIM_SR_CC2IF) != 0)
      _icu_isr_invoke_period_cb(icup);
  }
  if ((sr & STM32_TIM_SR_UIF) != 0)
  200336:	07e4      	lsls	r4, r4, #31
  200338:	d40b      	bmi.n	200352 <icu_lld_serve_interrupt+0x42>
  20033a:	bd38      	pop	{r3, r4, r5, pc}
    if ((sr & STM32_TIM_SR_CC1IF) != 0)
  20033c:	07a2      	lsls	r2, r4, #30
  20033e:	d512      	bpl.n	200366 <icu_lld_serve_interrupt+0x56>
      _icu_isr_invoke_width_cb(icup);
  200340:	7803      	ldrb	r3, [r0, #0]
  200342:	2b04      	cmp	r3, #4
  200344:	d00c      	beq.n	200360 <icu_lld_serve_interrupt+0x50>
    if ((sr & STM32_TIM_SR_CC2IF) != 0)
  200346:	0763      	lsls	r3, r4, #29
  200348:	d5f5      	bpl.n	200336 <icu_lld_serve_interrupt+0x26>
      _icu_isr_invoke_period_cb(icup);
  20034a:	2304      	movs	r3, #4
  if ((sr & STM32_TIM_SR_UIF) != 0)
  20034c:	07e4      	lsls	r4, r4, #31
      _icu_isr_invoke_period_cb(icup);
  20034e:	702b      	strb	r3, [r5, #0]
  if ((sr & STM32_TIM_SR_UIF) != 0)
  200350:	d5f3      	bpl.n	20033a <icu_lld_serve_interrupt+0x2a>
    _icu_isr_invoke_overflow_cb(icup);
  200352:	686b      	ldr	r3, [r5, #4]
  200354:	4628      	mov	r0, r5
  200356:	691b      	ldr	r3, [r3, #16]
  200358:	4798      	blx	r3
  20035a:	2303      	movs	r3, #3
  20035c:	702b      	strb	r3, [r5, #0]
  20035e:	bd38      	pop	{r3, r4, r5, pc}
      _icu_isr_invoke_width_cb(icup);
  200360:	688b      	ldr	r3, [r1, #8]
  200362:	b1c3      	cbz	r3, 200396 <icu_lld_serve_interrupt+0x86>
  200364:	4798      	blx	r3
    if ((sr & STM32_TIM_SR_CC2IF) != 0)
  200366:	0763      	lsls	r3, r4, #29
  200368:	d5e5      	bpl.n	200336 <icu_lld_serve_interrupt+0x26>
      _icu_isr_invoke_period_cb(icup);
  20036a:	782b      	ldrb	r3, [r5, #0]
  20036c:	2b04      	cmp	r3, #4
  20036e:	d1ec      	bne.n	20034a <icu_lld_serve_interrupt+0x3a>
  200370:	6869      	ldr	r1, [r5, #4]
  200372:	68cb      	ldr	r3, [r1, #12]
  200374:	2b00      	cmp	r3, #0
  200376:	d0e8      	beq.n	20034a <icu_lld_serve_interrupt+0x3a>
  200378:	4628      	mov	r0, r5
  20037a:	4798      	blx	r3
  20037c:	e7e5      	b.n	20034a <icu_lld_serve_interrupt+0x3a>
      _icu_isr_invoke_width_cb(icup);
  20037e:	688b      	ldr	r3, [r1, #8]
  200380:	b133      	cbz	r3, 200390 <icu_lld_serve_interrupt+0x80>
  200382:	4798      	blx	r3
    if ((sr & STM32_TIM_SR_CC1IF) != 0)
  200384:	07a1      	lsls	r1, r4, #30
  200386:	d5d6      	bpl.n	200336 <icu_lld_serve_interrupt+0x26>
      _icu_isr_invoke_period_cb(icup);
  200388:	782b      	ldrb	r3, [r5, #0]
  20038a:	2b04      	cmp	r3, #4
  20038c:	d1dd      	bne.n	20034a <icu_lld_serve_interrupt+0x3a>
  20038e:	e7ef      	b.n	200370 <icu_lld_serve_interrupt+0x60>
    if ((sr & STM32_TIM_SR_CC1IF) != 0)
  200390:	07a0      	lsls	r0, r4, #30
  200392:	d4ee      	bmi.n	200372 <icu_lld_serve_interrupt+0x62>
  200394:	e7cf      	b.n	200336 <icu_lld_serve_interrupt+0x26>
    if ((sr & STM32_TIM_SR_CC2IF) != 0)
  200396:	0762      	lsls	r2, r4, #29
  200398:	d4eb      	bmi.n	200372 <icu_lld_serve_interrupt+0x62>
  20039a:	e7cc      	b.n	200336 <icu_lld_serve_interrupt+0x26>
  20039c:	0000      	movs	r0, r0
	...

002003a0 <_port_irq_epilogue>:
  \details Assigns the given value to the Base Priority register.
  \param [in]    basePri  Base Priority value to set
 */
__attribute__( ( always_inline ) ) __STATIC_INLINE void __set_BASEPRI(uint32_t value)
{
  __ASM volatile ("MSR basepri, %0" : : "r" (value) : "memory");
  2003a0:	2320      	movs	r3, #32
  2003a2:	f383 8811 	msr	BASEPRI, r3
 * @brief   Exception exit redirection to _port_switch_from_isr().
 */
void _port_irq_epilogue(void) {

  port_lock_from_isr();
  if ((SCB->ICSR & SCB_ICSR_RETTOBASE_Msk) != 0U) {
  2003a6:	4b11      	ldr	r3, [pc, #68]	; (2003ec <_port_irq_epilogue+0x4c>)
  2003a8:	685b      	ldr	r3, [r3, #4]
  2003aa:	f413 6300 	ands.w	r3, r3, #2048	; 0x800
  2003ae:	d102      	bne.n	2003b6 <_port_irq_epilogue+0x16>
  2003b0:	f383 8811 	msr	BASEPRI, r3
  2003b4:	4770      	bx	lr
void _port_irq_epilogue(void) {
  2003b6:	b480      	push	{r7}
  2003b8:	af00      	add	r7, sp, #0
  __ASM volatile ("MRS %0, psp\n"  : "=r" (result) );
  2003ba:	f3ef 8309 	mrs	r3, PSP
    /* Adding an artificial exception return context, there is no need to
       populate it fully.*/
    ctxp--;

    /* Setting up a fake XPSR register value.*/
    ctxp->xpsr = (regarm_t)0x01000000;
  2003be:	f04f 7180 	mov.w	r1, #16777216	; 0x1000000
    ctxp--;
  2003c2:	f1a3 0220 	sub.w	r2, r3, #32
    ctxp->xpsr = (regarm_t)0x01000000;
  2003c6:	f843 1c04 	str.w	r1, [r3, #-4]
  __ASM volatile ("MSR psp, %0\n" : : "r" (topOfProcStack) : "sp");
  2003ca:	f382 8809 	msr	PSP, r2
 * @retval false        if preemption is not required.
 *
 * @special
 */
bool chSchIsPreemptionRequired(void) {
  tprio_t p1 = firstprio(&ch.rlist.queue);
  2003ce:	4a08      	ldr	r2, [pc, #32]	; (2003f0 <_port_irq_epilogue+0x50>)
  2003d0:	6811      	ldr	r1, [r2, #0]
  tprio_t p2 = currp->prio;
  2003d2:	6992      	ldr	r2, [r2, #24]
    /* Writing back the modified PSP value.*/
    __set_PSP((uint32_t)ctxp);

    /* The exit sequence is different depending on if a preemption is
       required or not.*/
    if (chSchIsPreemptionRequired()) {
  2003d4:	6889      	ldr	r1, [r1, #8]
  2003d6:	6892      	ldr	r2, [r2, #8]
  2003d8:	4291      	cmp	r1, r2
      /* Preemption is required we need to enforce a context switch.*/
      ctxp->pc = (regarm_t)_port_switch_from_isr;
  2003da:	bf8c      	ite	hi
  2003dc:	4a05      	ldrhi	r2, [pc, #20]	; (2003f4 <_port_irq_epilogue+0x54>)
    }
    else {
      /* Preemption not required, we just need to exit the exception
         atomically.*/
      ctxp->pc = (regarm_t)_port_exit_from_isr;
  2003de:	4a06      	ldrls	r2, [pc, #24]	; (2003f8 <_port_irq_epilogue+0x58>)
  2003e0:	f843 2c08 	str.w	r2, [r3, #-8]
    /* Note, returning without unlocking is intentional, this is done in
       order to keep the rest of the context switch atomic.*/
    return;
  }
  port_unlock_from_isr();
}
  2003e4:	46bd      	mov	sp, r7
  2003e6:	bc80      	pop	{r7}
  2003e8:	4770      	bx	lr
  2003ea:	bf00      	nop
  2003ec:	e000ed00 	.word	0xe000ed00
  2003f0:	20000c98 	.word	0x20000c98
  2003f4:	002002f5 	.word	0x002002f5
  2003f8:	002002f8 	.word	0x002002f8
  2003fc:	00000000 	.word	0x00000000

00200400 <VectorA0>:
OSAL_IRQ_HANDLER(STM32_TIM9_HANDLER) {
  200400:	b508      	push	{r3, lr}
  icu_lld_serve_interrupt(&ICUD9);
  200402:	4803      	ldr	r0, [pc, #12]	; (200410 <VectorA0+0x10>)
  200404:	f7ff ff84 	bl	200310 <icu_lld_serve_interrupt>
}
  200408:	e8bd 4008 	ldmia.w	sp!, {r3, lr}
  OSAL_IRQ_EPILOGUE();
  20040c:	f7ff bfc8 	b.w	2003a0 <_port_irq_epilogue>
  200410:	20000864 	.word	0x20000864
	...

00200420 <VectorF0>:
OSAL_IRQ_HANDLER(STM32_TIM8_UP_HANDLER) {
  200420:	b508      	push	{r3, lr}
  icu_lld_serve_interrupt(&ICUD8);
  200422:	4803      	ldr	r0, [pc, #12]	; (200430 <VectorF0+0x10>)
  200424:	f7ff ff74 	bl	200310 <icu_lld_serve_interrupt>
}
  200428:	e8bd 4008 	ldmia.w	sp!, {r3, lr}
  OSAL_IRQ_EPILOGUE();
  20042c:	f7ff bfb8 	b.w	2003a0 <_port_irq_epilogue>
  200430:	2000084c 	.word	0x2000084c
	...

00200440 <VectorF8>:
  200440:	f7ff bfee 	b.w	200420 <VectorF0>
	...

00200450 <VectorB8>:
/**
 * @brief   TIM4 interrupt handler.
 *
 * @isr
 */
OSAL_IRQ_HANDLER(STM32_TIM4_HANDLER) {
  200450:	b508      	push	{r3, lr}
 *
 * @notapi
 */
void gpt_lld_serve_interrupt(GPTDriver *gptp) {

  gptp->tim->SR = 0;
  200452:	4b0b      	ldr	r3, [pc, #44]	; (200480 <VectorB8+0x30>)
  200454:	2100      	movs	r1, #0
  if (gptp->state == GPT_ONESHOT) {
  200456:	7818      	ldrb	r0, [r3, #0]
  gptp->tim->SR = 0;
  200458:	68da      	ldr	r2, [r3, #12]
  if (gptp->state == GPT_ONESHOT) {
  20045a:	2804      	cmp	r0, #4
  gptp->tim->SR = 0;
  20045c:	6111      	str	r1, [r2, #16]
  if (gptp->state == GPT_ONESHOT) {
  20045e:	d107      	bne.n	200470 <VectorB8+0x20>
    gptp->state = GPT_READY;                /* Back in GPT_READY state.     */
  200460:	2002      	movs	r0, #2
  200462:	7018      	strb	r0, [r3, #0]
  gptp->tim->CR1 = 0;                           /* Initially stopped.       */
  200464:	6011      	str	r1, [r2, #0]
  gptp->tim->SR = 0;                            /* Clear pending IRQs.      */
  200466:	6111      	str	r1, [r2, #16]
  gptp->tim->DIER &= ~STM32_TIM_DIER_IRQ_MASK;
  200468:	68d1      	ldr	r1, [r2, #12]
  20046a:	f021 01ff 	bic.w	r1, r1, #255	; 0xff
  20046e:	60d1      	str	r1, [r2, #12]
    gpt_lld_stop_timer(gptp);               /* Timer automatically stopped. */
  }
  gptp->config->callback(gptp);
  200470:	685b      	ldr	r3, [r3, #4]
  200472:	4803      	ldr	r0, [pc, #12]	; (200480 <VectorB8+0x30>)
  200474:	685b      	ldr	r3, [r3, #4]
  200476:	4798      	blx	r3
}
  200478:	e8bd 4008 	ldmia.w	sp!, {r3, lr}
  OSAL_IRQ_EPILOGUE();
  20047c:	f7ff bf90 	b.w	2003a0 <_port_irq_epilogue>
  200480:	2000083c 	.word	0x2000083c
	...

00200490 <SysTick_Handler>:
 * @brief   System Timer vector.
 * @details This interrupt is used for system tick in periodic mode.
 *
 * @isr
 */
OSAL_IRQ_HANDLER(SysTick_Handler) {
  200490:	b5f8      	push	{r3, r4, r5, r6, r7, lr}
  __ASM volatile ("MSR basepri, %0" : : "r" (value) : "memory");
  200492:	2720      	movs	r7, #32
  200494:	f387 8811 	msr	BASEPRI, r7
static inline void chVTDoTickI(void) {

  chDbgCheckClassI();

#if CH_CFG_ST_TIMEDELTA == 0
  ch.vtlist.systime++;
  200498:	4d12      	ldr	r5, [pc, #72]	; (2004e4 <SysTick_Handler+0x54>)
  20049a:	8cea      	ldrh	r2, [r5, #38]	; 0x26
  if (&ch.vtlist != (virtual_timers_list_t *)ch.vtlist.next) {
  20049c:	462e      	mov	r6, r5
  ch.vtlist.systime++;
  20049e:	3201      	adds	r2, #1
  if (&ch.vtlist != (virtual_timers_list_t *)ch.vtlist.next) {
  2004a0:	f856 3f1c 	ldr.w	r3, [r6, #28]!
  ch.vtlist.systime++;
  2004a4:	b292      	uxth	r2, r2
  if (&ch.vtlist != (virtual_timers_list_t *)ch.vtlist.next) {
  2004a6:	42b3      	cmp	r3, r6
  ch.vtlist.systime++;
  2004a8:	84ea      	strh	r2, [r5, #38]	; 0x26
  if (&ch.vtlist != (virtual_timers_list_t *)ch.vtlist.next) {
  2004aa:	d013      	beq.n	2004d4 <SysTick_Handler+0x44>
    /* The list is not empty, processing elements on top.*/
    --ch.vtlist.next->delta;
  2004ac:	891c      	ldrh	r4, [r3, #8]
  2004ae:	3c01      	subs	r4, #1
  2004b0:	b2a4      	uxth	r4, r4
  2004b2:	811c      	strh	r4, [r3, #8]
    while (ch.vtlist.next->delta == (systime_t)0) {
  2004b4:	b974      	cbnz	r4, 2004d4 <SysTick_Handler+0x44>
      vtfunc_t fn;

      vtp = ch.vtlist.next;
      fn = vtp->func;
      vtp->func = NULL;
      vtp->next->prev = (virtual_timer_t *)&ch.vtlist;
  2004b6:	681a      	ldr	r2, [r3, #0]
      fn = vtp->func;
  2004b8:	68d9      	ldr	r1, [r3, #12]
      vtp->func = NULL;
  2004ba:	60dc      	str	r4, [r3, #12]
      vtp->next->prev = (virtual_timer_t *)&ch.vtlist;
  2004bc:	6056      	str	r6, [r2, #4]
      ch.vtlist.next = vtp->next;
  2004be:	61ea      	str	r2, [r5, #28]
  2004c0:	f384 8811 	msr	BASEPRI, r4
      chSysUnlockFromISR();
      fn(vtp->par);
  2004c4:	6918      	ldr	r0, [r3, #16]
  2004c6:	4788      	blx	r1
  2004c8:	f387 8811 	msr	BASEPRI, r7
    while (ch.vtlist.next->delta == (systime_t)0) {
  2004cc:	69eb      	ldr	r3, [r5, #28]
  2004ce:	891a      	ldrh	r2, [r3, #8]
  2004d0:	2a00      	cmp	r2, #0
  2004d2:	d0f0      	beq.n	2004b6 <SysTick_Handler+0x26>
  2004d4:	2300      	movs	r3, #0
  2004d6:	f383 8811 	msr	BASEPRI, r3
  osalSysLockFromISR();
  osalOsTimerHandlerI();
  osalSysUnlockFromISR();

  OSAL_IRQ_EPILOGUE();
}
  2004da:	e8bd 40f8 	ldmia.w	sp!, {r3, r4, r5, r6, r7, lr}
  OSAL_IRQ_EPILOGUE();
  2004de:	f7ff bf5f 	b.w	2003a0 <_port_irq_epilogue>
  2004e2:	bf00      	nop
  2004e4:	20000c98 	.word	0x20000c98
	...

002004f0 <Vector158>:
OSAL_IRQ_HANDLER(STM32_DMA2_CH7_HANDLER) {
  uint32_t flags;

  OSAL_IRQ_PROLOGUE();

  flags = (DMA2->HISR >> 22U) & STM32_DMA_ISR_MASK;
  2004f0:	4b08      	ldr	r3, [pc, #32]	; (200514 <Vector158+0x24>)
  DMA2->HIFCR = flags << 22U;
  if (dma_isr_redir[15].dma_func)
  2004f2:	4809      	ldr	r0, [pc, #36]	; (200518 <Vector158+0x28>)
  flags = (DMA2->HISR >> 22U) & STM32_DMA_ISR_MASK;
  2004f4:	6859      	ldr	r1, [r3, #4]
  if (dma_isr_redir[15].dma_func)
  2004f6:	6f82      	ldr	r2, [r0, #120]	; 0x78
  flags = (DMA2->HISR >> 22U) & STM32_DMA_ISR_MASK;
  2004f8:	0d89      	lsrs	r1, r1, #22
  2004fa:	f001 013d 	and.w	r1, r1, #61	; 0x3d
OSAL_IRQ_HANDLER(STM32_DMA2_CH7_HANDLER) {
  2004fe:	b510      	push	{r4, lr}
  DMA2->HIFCR = flags << 22U;
  200500:	058c      	lsls	r4, r1, #22
  200502:	60dc      	str	r4, [r3, #12]
  if (dma_isr_redir[15].dma_func)
  200504:	b10a      	cbz	r2, 20050a <Vector158+0x1a>
    dma_isr_redir[15].dma_func(dma_isr_redir[15].dma_param, flags);
  200506:	6fc0      	ldr	r0, [r0, #124]	; 0x7c
  200508:	4790      	blx	r2

  OSAL_IRQ_EPILOGUE();
}
  20050a:	e8bd 4010 	ldmia.w	sp!, {r4, lr}
  OSAL_IRQ_EPILOGUE();
  20050e:	f7ff bf47 	b.w	2003a0 <_port_irq_epilogue>
  200512:	bf00      	nop
  200514:	40026400 	.word	0x40026400
  200518:	20000a40 	.word	0x20000a40
  20051c:	00000000 	.word	0x00000000

00200520 <Vector154>:
  flags = (DMA2->HISR >> 16U) & STM32_DMA_ISR_MASK;
  200520:	4b08      	ldr	r3, [pc, #32]	; (200544 <Vector154+0x24>)
  if (dma_isr_redir[14].dma_func)
  200522:	4809      	ldr	r0, [pc, #36]	; (200548 <Vector154+0x28>)
  flags = (DMA2->HISR >> 16U) & STM32_DMA_ISR_MASK;
  200524:	6859      	ldr	r1, [r3, #4]
  if (dma_isr_redir[14].dma_func)
  200526:	6f02      	ldr	r2, [r0, #112]	; 0x70
  flags = (DMA2->HISR >> 16U) & STM32_DMA_ISR_MASK;
  200528:	0c09      	lsrs	r1, r1, #16
  20052a:	f001 013d 	and.w	r1, r1, #61	; 0x3d
OSAL_IRQ_HANDLER(STM32_DMA2_CH6_HANDLER) {
  20052e:	b510      	push	{r4, lr}
  DMA2->HIFCR = flags << 16U;
  200530:	040c      	lsls	r4, r1, #16
  200532:	60dc      	str	r4, [r3, #12]
  if (dma_isr_redir[14].dma_func)
  200534:	b10a      	cbz	r2, 20053a <Vector154+0x1a>
    dma_isr_redir[14].dma_func(dma_isr_redir[14].dma_param, flags);
  200536:	6f40      	ldr	r0, [r0, #116]	; 0x74
  200538:	4790      	blx	r2
}
  20053a:	e8bd 4010 	ldmia.w	sp!, {r4, lr}
  OSAL_IRQ_EPILOGUE();
  20053e:	f7ff bf2f 	b.w	2003a0 <_port_irq_epilogue>
  200542:	bf00      	nop
  200544:	40026400 	.word	0x40026400
  200548:	20000a40 	.word	0x20000a40
  20054c:	00000000 	.word	0x00000000

00200550 <Vector150>:
  flags = (DMA2->HISR >> 6U) & STM32_DMA_ISR_MASK;
  200550:	4b08      	ldr	r3, [pc, #32]	; (200574 <Vector150+0x24>)
  if (dma_isr_redir[13].dma_func)
  200552:	4809      	ldr	r0, [pc, #36]	; (200578 <Vector150+0x28>)
  flags = (DMA2->HISR >> 6U) & STM32_DMA_ISR_MASK;
  200554:	6859      	ldr	r1, [r3, #4]
  if (dma_isr_redir[13].dma_func)
  200556:	6e82      	ldr	r2, [r0, #104]	; 0x68
  flags = (DMA2->HISR >> 6U) & STM32_DMA_ISR_MASK;
  200558:	0989      	lsrs	r1, r1, #6
  20055a:	f001 013d 	and.w	r1, r1, #61	; 0x3d
OSAL_IRQ_HANDLER(STM32_DMA2_CH5_HANDLER) {
  20055e:	b510      	push	{r4, lr}
  DMA2->HIFCR = flags << 6U;
  200560:	018c      	lsls	r4, r1, #6
  200562:	60dc      	str	r4, [r3, #12]
  if (dma_isr_redir[13].dma_func)
  200564:	b10a      	cbz	r2, 20056a <Vector150+0x1a>
    dma_isr_redir[13].dma_func(dma_isr_redir[13].dma_param, flags);
  200566:	6ec0      	ldr	r0, [r0, #108]	; 0x6c
  200568:	4790      	blx	r2
}
  20056a:	e8bd 4010 	ldmia.w	sp!, {r4, lr}
  OSAL_IRQ_EPILOGUE();
  20056e:	f7ff bf17 	b.w	2003a0 <_port_irq_epilogue>
  200572:	bf00      	nop
  200574:	40026400 	.word	0x40026400
  200578:	20000a40 	.word	0x20000a40
  20057c:	00000000 	.word	0x00000000

00200580 <Vector130>:
OSAL_IRQ_HANDLER(STM32_DMA2_CH4_HANDLER) {
  200580:	b508      	push	{r3, lr}
  flags = (DMA2->HISR >> 0U) & STM32_DMA_ISR_MASK;
  200582:	4b07      	ldr	r3, [pc, #28]	; (2005a0 <Vector130+0x20>)
  if (dma_isr_redir[12].dma_func)
  200584:	4807      	ldr	r0, [pc, #28]	; (2005a4 <Vector130+0x24>)
  flags = (DMA2->HISR >> 0U) & STM32_DMA_ISR_MASK;
  200586:	6859      	ldr	r1, [r3, #4]
  if (dma_isr_redir[12].dma_func)
  200588:	6e02      	ldr	r2, [r0, #96]	; 0x60
  flags = (DMA2->HISR >> 0U) & STM32_DMA_ISR_MASK;
  20058a:	f001 013d 	and.w	r1, r1, #61	; 0x3d
  DMA2->HIFCR = flags << 0U;
  20058e:	60d9      	str	r1, [r3, #12]
  if (dma_isr_redir[12].dma_func)
  200590:	b10a      	cbz	r2, 200596 <Vector130+0x16>
    dma_isr_redir[12].dma_func(dma_isr_redir[12].dma_param, flags);
  200592:	6e40      	ldr	r0, [r0, #100]	; 0x64
  200594:	4790      	blx	r2
}
  200596:	e8bd 4008 	ldmia.w	sp!, {r3, lr}
  OSAL_IRQ_EPILOGUE();
  20059a:	f7ff bf01 	b.w	2003a0 <_port_irq_epilogue>
  20059e:	bf00      	nop
  2005a0:	40026400 	.word	0x40026400
  2005a4:	20000a40 	.word	0x20000a40
	...

002005b0 <Vector12C>:
  flags = (DMA2->LISR >> 22U) & STM32_DMA_ISR_MASK;
  2005b0:	4b08      	ldr	r3, [pc, #32]	; (2005d4 <Vector12C+0x24>)
  if (dma_isr_redir[11].dma_func)
  2005b2:	4809      	ldr	r0, [pc, #36]	; (2005d8 <Vector12C+0x28>)
  flags = (DMA2->LISR >> 22U) & STM32_DMA_ISR_MASK;
  2005b4:	6819      	ldr	r1, [r3, #0]
  if (dma_isr_redir[11].dma_func)
  2005b6:	6d82      	ldr	r2, [r0, #88]	; 0x58
  flags = (DMA2->LISR >> 22U) & STM32_DMA_ISR_MASK;
  2005b8:	0d89      	lsrs	r1, r1, #22
  2005ba:	f001 013d 	and.w	r1, r1, #61	; 0x3d
OSAL_IRQ_HANDLER(STM32_DMA2_CH3_HANDLER) {
  2005be:	b510      	push	{r4, lr}
  DMA2->LIFCR = flags << 22U;
  2005c0:	058c      	lsls	r4, r1, #22
  2005c2:	609c      	str	r4, [r3, #8]
  if (dma_isr_redir[11].dma_func)
  2005c4:	b10a      	cbz	r2, 2005ca <Vector12C+0x1a>
    dma_isr_redir[11].dma_func(dma_isr_redir[11].dma_param, flags);
  2005c6:	6dc0      	ldr	r0, [r0, #92]	; 0x5c
  2005c8:	4790      	blx	r2
}
  2005ca:	e8bd 4010 	ldmia.w	sp!, {r4, lr}
  OSAL_IRQ_EPILOGUE();
  2005ce:	f7ff bee7 	b.w	2003a0 <_port_irq_epilogue>
  2005d2:	bf00      	nop
  2005d4:	40026400 	.word	0x40026400
  2005d8:	20000a40 	.word	0x20000a40
  2005dc:	00000000 	.word	0x00000000

002005e0 <Vector128>:
  flags = (DMA2->LISR >> 16U) & STM32_DMA_ISR_MASK;
  2005e0:	4b08      	ldr	r3, [pc, #32]	; (200604 <Vector128+0x24>)
  if (dma_isr_redir[10].dma_func)
  2005e2:	4809      	ldr	r0, [pc, #36]	; (200608 <Vector128+0x28>)
  flags = (DMA2->LISR >> 16U) & STM32_DMA_ISR_MASK;
  2005e4:	6819      	ldr	r1, [r3, #0]
  if (dma_isr_redir[10].dma_func)
  2005e6:	6d02      	ldr	r2, [r0, #80]	; 0x50
  flags = (DMA2->LISR >> 16U) & STM32_DMA_ISR_MASK;
  2005e8:	0c09      	lsrs	r1, r1, #16
  2005ea:	f001 013d 	and.w	r1, r1, #61	; 0x3d
OSAL_IRQ_HANDLER(STM32_DMA2_CH2_HANDLER) {
  2005ee:	b510      	push	{r4, lr}
  DMA2->LIFCR = flags << 16U;
  2005f0:	040c      	lsls	r4, r1, #16
  2005f2:	609c      	str	r4, [r3, #8]
  if (dma_isr_redir[10].dma_func)
  2005f4:	b10a      	cbz	r2, 2005fa <Vector128+0x1a>
    dma_isr_redir[10].dma_func(dma_isr_redir[10].dma_param, flags);
  2005f6:	6d40      	ldr	r0, [r0, #84]	; 0x54
  2005f8:	4790      	blx	r2
}
  2005fa:	e8bd 4010 	ldmia.w	sp!, {r4, lr}
  OSAL_IRQ_EPILOGUE();
  2005fe:	f7ff becf 	b.w	2003a0 <_port_irq_epilogue>
  200602:	bf00      	nop
  200604:	40026400 	.word	0x40026400
  200608:	20000a40 	.word	0x20000a40
  20060c:	00000000 	.word	0x00000000

00200610 <Vector124>:
  flags = (DMA2->LISR >> 6U) & STM32_DMA_ISR_MASK;
  200610:	4b08      	ldr	r3, [pc, #32]	; (200634 <Vector124+0x24>)
  if (dma_isr_redir[9].dma_func)
  200612:	4809      	ldr	r0, [pc, #36]	; (200638 <Vector124+0x28>)
  flags = (DMA2->LISR >> 6U) & STM32_DMA_ISR_MASK;
  200614:	6819      	ldr	r1, [r3, #0]
  if (dma_isr_redir[9].dma_func)
  200616:	6c82      	ldr	r2, [r0, #72]	; 0x48
  flags = (DMA2->LISR >> 6U) & STM32_DMA_ISR_MASK;
  200618:	0989      	lsrs	r1, r1, #6
  20061a:	f001 013d 	and.w	r1, r1, #61	; 0x3d
OSAL_IRQ_HANDLER(STM32_DMA2_CH1_HANDLER) {
  20061e:	b510      	push	{r4, lr}
  DMA2->LIFCR = flags << 6U;
  200620:	018c      	lsls	r4, r1, #6
  200622:	609c      	str	r4, [r3, #8]
  if (dma_isr_redir[9].dma_func)
  200624:	b10a      	cbz	r2, 20062a <Vector124+0x1a>
    dma_isr_redir[9].dma_func(dma_isr_redir[9].dma_param, flags);
  200626:	6cc0      	ldr	r0, [r0, #76]	; 0x4c
  200628:	4790      	blx	r2
}
  20062a:	e8bd 4010 	ldmia.w	sp!, {r4, lr}
  OSAL_IRQ_EPILOGUE();
  20062e:	f7ff beb7 	b.w	2003a0 <_port_irq_epilogue>
  200632:	bf00      	nop
  200634:	40026400 	.word	0x40026400
  200638:	20000a40 	.word	0x20000a40
  20063c:	00000000 	.word	0x00000000

00200640 <Vector120>:
OSAL_IRQ_HANDLER(STM32_DMA2_CH0_HANDLER) {
  200640:	b508      	push	{r3, lr}
  flags = (DMA2->LISR >> 0U) & STM32_DMA_ISR_MASK;
  200642:	4b07      	ldr	r3, [pc, #28]	; (200660 <Vector120+0x20>)
  if (dma_isr_redir[8].dma_func)
  200644:	4807      	ldr	r0, [pc, #28]	; (200664 <Vector120+0x24>)
  flags = (DMA2->LISR >> 0U) & STM32_DMA_ISR_MASK;
  200646:	6819      	ldr	r1, [r3, #0]
  if (dma_isr_redir[8].dma_func)
  200648:	6c02      	ldr	r2, [r0, #64]	; 0x40
  flags = (DMA2->LISR >> 0U) & STM32_DMA_ISR_MASK;
  20064a:	f001 013d 	and.w	r1, r1, #61	; 0x3d
  DMA2->LIFCR = flags << 0U;
  20064e:	6099      	str	r1, [r3, #8]
  if (dma_isr_redir[8].dma_func)
  200650:	b10a      	cbz	r2, 200656 <Vector120+0x16>
    dma_isr_redir[8].dma_func(dma_isr_redir[8].dma_param, flags);
  200652:	6c40      	ldr	r0, [r0, #68]	; 0x44
  200654:	4790      	blx	r2
}
  200656:	e8bd 4008 	ldmia.w	sp!, {r3, lr}
  OSAL_IRQ_EPILOGUE();
  20065a:	f7ff bea1 	b.w	2003a0 <_port_irq_epilogue>
  20065e:	bf00      	nop
  200660:	40026400 	.word	0x40026400
  200664:	20000a40 	.word	0x20000a40
	...

00200670 <VectorFC>:
  flags = (DMA1->HISR >> 22U) & STM32_DMA_ISR_MASK;
  200670:	4b08      	ldr	r3, [pc, #32]	; (200694 <VectorFC+0x24>)
  if (dma_isr_redir[7].dma_func)
  200672:	4809      	ldr	r0, [pc, #36]	; (200698 <VectorFC+0x28>)
  flags = (DMA1->HISR >> 22U) & STM32_DMA_ISR_MASK;
  200674:	6859      	ldr	r1, [r3, #4]
  if (dma_isr_redir[7].dma_func)
  200676:	6b82      	ldr	r2, [r0, #56]	; 0x38
  flags = (DMA1->HISR >> 22U) & STM32_DMA_ISR_MASK;
  200678:	0d89      	lsrs	r1, r1, #22
  20067a:	f001 013d 	and.w	r1, r1, #61	; 0x3d
OSAL_IRQ_HANDLER(STM32_DMA1_CH7_HANDLER) {
  20067e:	b510      	push	{r4, lr}
  DMA1->HIFCR = flags << 22U;
  200680:	058c      	lsls	r4, r1, #22
  200682:	60dc      	str	r4, [r3, #12]
  if (dma_isr_redir[7].dma_func)
  200684:	b10a      	cbz	r2, 20068a <VectorFC+0x1a>
    dma_isr_redir[7].dma_func(dma_isr_redir[7].dma_param, flags);
  200686:	6bc0      	ldr	r0, [r0, #60]	; 0x3c
  200688:	4790      	blx	r2
}
  20068a:	e8bd 4010 	ldmia.w	sp!, {r4, lr}
  OSAL_IRQ_EPILOGUE();
  20068e:	f7ff be87 	b.w	2003a0 <_port_irq_epilogue>
  200692:	bf00      	nop
  200694:	40026000 	.word	0x40026000
  200698:	20000a40 	.word	0x20000a40
  20069c:	00000000 	.word	0x00000000

002006a0 <Vector84>:
  flags = (DMA1->HISR >> 16U) & STM32_DMA_ISR_MASK;
  2006a0:	4b08      	ldr	r3, [pc, #32]	; (2006c4 <Vector84+0x24>)
  if (dma_isr_redir[6].dma_func)
  2006a2:	4809      	ldr	r0, [pc, #36]	; (2006c8 <Vector84+0x28>)
  flags = (DMA1->HISR >> 16U) & STM32_DMA_ISR_MASK;
  2006a4:	6859      	ldr	r1, [r3, #4]
  if (dma_isr_redir[6].dma_func)
  2006a6:	6b02      	ldr	r2, [r0, #48]	; 0x30
  flags = (DMA1->HISR >> 16U) & STM32_DMA_ISR_MASK;
  2006a8:	0c09      	lsrs	r1, r1, #16
  2006aa:	f001 013d 	and.w	r1, r1, #61	; 0x3d
OSAL_IRQ_HANDLER(STM32_DMA1_CH6_HANDLER) {
  2006ae:	b510      	push	{r4, lr}
  DMA1->HIFCR = flags << 16U;
  2006b0:	040c      	lsls	r4, r1, #16
  2006b2:	60dc      	str	r4, [r3, #12]
  if (dma_isr_redir[6].dma_func)
  2006b4:	b10a      	cbz	r2, 2006ba <Vector84+0x1a>
    dma_isr_redir[6].dma_func(dma_isr_redir[6].dma_param, flags);
  2006b6:	6b40      	ldr	r0, [r0, #52]	; 0x34
  2006b8:	4790      	blx	r2
}
  2006ba:	e8bd 4010 	ldmia.w	sp!, {r4, lr}
  OSAL_IRQ_EPILOGUE();
  2006be:	f7ff be6f 	b.w	2003a0 <_port_irq_epilogue>
  2006c2:	bf00      	nop
  2006c4:	40026000 	.word	0x40026000
  2006c8:	20000a40 	.word	0x20000a40
  2006cc:	00000000 	.word	0x00000000

002006d0 <Vector80>:
  flags = (DMA1->HISR >> 6U) & STM32_DMA_ISR_MASK;
  2006d0:	4b08      	ldr	r3, [pc, #32]	; (2006f4 <Vector80+0x24>)
  if (dma_isr_redir[5].dma_func)
  2006d2:	4809      	ldr	r0, [pc, #36]	; (2006f8 <Vector80+0x28>)
  flags = (DMA1->HISR >> 6U) & STM32_DMA_ISR_MASK;
  2006d4:	6859      	ldr	r1, [r3, #4]
  if (dma_isr_redir[5].dma_func)
  2006d6:	6a82      	ldr	r2, [r0, #40]	; 0x28
  flags = (DMA1->HISR >> 6U) & STM32_DMA_ISR_MASK;
  2006d8:	0989      	lsrs	r1, r1, #6
  2006da:	f001 013d 	and.w	r1, r1, #61	; 0x3d
OSAL_IRQ_HANDLER(STM32_DMA1_CH5_HANDLER) {
  2006de:	b510      	push	{r4, lr}
  DMA1->HIFCR = flags << 6U;
  2006e0:	018c      	lsls	r4, r1, #6
  2006e2:	60dc      	str	r4, [r3, #12]
  if (dma_isr_redir[5].dma_func)
  2006e4:	b10a      	cbz	r2, 2006ea <Vector80+0x1a>
    dma_isr_redir[5].dma_func(dma_isr_redir[5].dma_param, flags);
  2006e6:	6ac0      	ldr	r0, [r0, #44]	; 0x2c
  2006e8:	4790      	blx	r2
}
  2006ea:	e8bd 4010 	ldmia.w	sp!, {r4, lr}
  OSAL_IRQ_EPILOGUE();
  2006ee:	f7ff be57 	b.w	2003a0 <_port_irq_epilogue>
  2006f2:	bf00      	nop
  2006f4:	40026000 	.word	0x40026000
  2006f8:	20000a40 	.word	0x20000a40
  2006fc:	00000000 	.word	0x00000000

00200700 <Vector7C>:
OSAL_IRQ_HANDLER(STM32_DMA1_CH4_HANDLER) {
  200700:	b508      	push	{r3, lr}
  flags = (DMA1->HISR >> 0U) & STM32_DMA_ISR_MASK;
  200702:	4b07      	ldr	r3, [pc, #28]	; (200720 <Vector7C+0x20>)
  if (dma_isr_redir[4].dma_func)
  200704:	4807      	ldr	r0, [pc, #28]	; (200724 <Vector7C+0x24>)
  flags = (DMA1->HISR >> 0U) & STM32_DMA_ISR_MASK;
  200706:	6859      	ldr	r1, [r3, #4]
  if (dma_isr_redir[4].dma_func)
  200708:	6a02      	ldr	r2, [r0, #32]
  flags = (DMA1->HISR >> 0U) & STM32_DMA_ISR_MASK;
  20070a:	f001 013d 	and.w	r1, r1, #61	; 0x3d
  DMA1->HIFCR = flags << 0U;
  20070e:	60d9      	str	r1, [r3, #12]
  if (dma_isr_redir[4].dma_func)
  200710:	b10a      	cbz	r2, 200716 <Vector7C+0x16>
    dma_isr_redir[4].dma_func(dma_isr_redir[4].dma_param, flags);
  200712:	6a40      	ldr	r0, [r0, #36]	; 0x24
  200714:	4790      	blx	r2
}
  200716:	e8bd 4008 	ldmia.w	sp!, {r3, lr}
  OSAL_IRQ_EPILOGUE();
  20071a:	f7ff be41 	b.w	2003a0 <_port_irq_epilogue>
  20071e:	bf00      	nop
  200720:	40026000 	.word	0x40026000
  200724:	20000a40 	.word	0x20000a40
	...

00200730 <Vector78>:
  flags = (DMA1->LISR >> 22U) & STM32_DMA_ISR_MASK;
  200730:	4b08      	ldr	r3, [pc, #32]	; (200754 <Vector78+0x24>)
  if (dma_isr_redir[3].dma_func)
  200732:	4809      	ldr	r0, [pc, #36]	; (200758 <Vector78+0x28>)
  flags = (DMA1->LISR >> 22U) & STM32_DMA_ISR_MASK;
  200734:	6819      	ldr	r1, [r3, #0]
  if (dma_isr_redir[3].dma_func)
  200736:	6982      	ldr	r2, [r0, #24]
  flags = (DMA1->LISR >> 22U) & STM32_DMA_ISR_MASK;
  200738:	0d89      	lsrs	r1, r1, #22
  20073a:	f001 013d 	and.w	r1, r1, #61	; 0x3d
OSAL_IRQ_HANDLER(STM32_DMA1_CH3_HANDLER) {
  20073e:	b510      	push	{r4, lr}
  DMA1->LIFCR = flags << 22U;
  200740:	058c      	lsls	r4, r1, #22
  200742:	609c      	str	r4, [r3, #8]
  if (dma_isr_redir[3].dma_func)
  200744:	b10a      	cbz	r2, 20074a <Vector78+0x1a>
    dma_isr_redir[3].dma_func(dma_isr_redir[3].dma_param, flags);
  200746:	69c0      	ldr	r0, [r0, #28]
  200748:	4790      	blx	r2
}
  20074a:	e8bd 4010 	ldmia.w	sp!, {r4, lr}
  OSAL_IRQ_EPILOGUE();
  20074e:	f7ff be27 	b.w	2003a0 <_port_irq_epilogue>
  200752:	bf00      	nop
  200754:	40026000 	.word	0x40026000
  200758:	20000a40 	.word	0x20000a40
  20075c:	00000000 	.word	0x00000000

00200760 <Vector74>:
  flags = (DMA1->LISR >> 16U) & STM32_DMA_ISR_MASK;
  200760:	4b08      	ldr	r3, [pc, #32]	; (200784 <Vector74+0x24>)
  if (dma_isr_redir[2].dma_func)
  200762:	4809      	ldr	r0, [pc, #36]	; (200788 <Vector74+0x28>)
  flags = (DMA1->LISR >> 16U) & STM32_DMA_ISR_MASK;
  200764:	6819      	ldr	r1, [r3, #0]
  if (dma_isr_redir[2].dma_func)
  200766:	6902      	ldr	r2, [r0, #16]
  flags = (DMA1->LISR >> 16U) & STM32_DMA_ISR_MASK;
  200768:	0c09      	lsrs	r1, r1, #16
  20076a:	f001 013d 	and.w	r1, r1, #61	; 0x3d
OSAL_IRQ_HANDLER(STM32_DMA1_CH2_HANDLER) {
  20076e:	b510      	push	{r4, lr}
  DMA1->LIFCR = flags << 16U;
  200770:	040c      	lsls	r4, r1, #16
  200772:	609c      	str	r4, [r3, #8]
  if (dma_isr_redir[2].dma_func)
  200774:	b10a      	cbz	r2, 20077a <Vector74+0x1a>
    dma_isr_redir[2].dma_func(dma_isr_redir[2].dma_param, flags);
  200776:	6940      	ldr	r0, [r0, #20]
  200778:	4790      	blx	r2
}
  20077a:	e8bd 4010 	ldmia.w	sp!, {r4, lr}
  OSAL_IRQ_EPILOGUE();
  20077e:	f7ff be0f 	b.w	2003a0 <_port_irq_epilogue>
  200782:	bf00      	nop
  200784:	40026000 	.word	0x40026000
  200788:	20000a40 	.word	0x20000a40
  20078c:	00000000 	.word	0x00000000

00200790 <Vector70>:
  flags = (DMA1->LISR >> 6U) & STM32_DMA_ISR_MASK;
  200790:	4b08      	ldr	r3, [pc, #32]	; (2007b4 <Vector70+0x24>)
  if (dma_isr_redir[1].dma_func)
  200792:	4809      	ldr	r0, [pc, #36]	; (2007b8 <Vector70+0x28>)
  flags = (DMA1->LISR >> 6U) & STM32_DMA_ISR_MASK;
  200794:	6819      	ldr	r1, [r3, #0]
  if (dma_isr_redir[1].dma_func)
  200796:	6882      	ldr	r2, [r0, #8]
  flags = (DMA1->LISR >> 6U) & STM32_DMA_ISR_MASK;
  200798:	0989      	lsrs	r1, r1, #6
  20079a:	f001 013d 	and.w	r1, r1, #61	; 0x3d
OSAL_IRQ_HANDLER(STM32_DMA1_CH1_HANDLER) {
  20079e:	b510      	push	{r4, lr}
  DMA1->LIFCR = flags << 6U;
  2007a0:	018c      	lsls	r4, r1, #6
  2007a2:	609c      	str	r4, [r3, #8]
  if (dma_isr_redir[1].dma_func)
  2007a4:	b10a      	cbz	r2, 2007aa <Vector70+0x1a>
    dma_isr_redir[1].dma_func(dma_isr_redir[1].dma_param, flags);
  2007a6:	68c0      	ldr	r0, [r0, #12]
  2007a8:	4790      	blx	r2
}
  2007aa:	e8bd 4010 	ldmia.w	sp!, {r4, lr}
  OSAL_IRQ_EPILOGUE();
  2007ae:	f7ff bdf7 	b.w	2003a0 <_port_irq_epilogue>
  2007b2:	bf00      	nop
  2007b4:	40026000 	.word	0x40026000
  2007b8:	20000a40 	.word	0x20000a40
  2007bc:	00000000 	.word	0x00000000

002007c0 <Vector6C>:
OSAL_IRQ_HANDLER(STM32_DMA1_CH0_HANDLER) {
  2007c0:	b508      	push	{r3, lr}
  flags = (DMA1->LISR >> 0U) & STM32_DMA_ISR_MASK;
  2007c2:	4b07      	ldr	r3, [pc, #28]	; (2007e0 <Vector6C+0x20>)
  if (dma_isr_redir[0].dma_func)
  2007c4:	4a07      	ldr	r2, [pc, #28]	; (2007e4 <Vector6C+0x24>)
  flags = (DMA1->LISR >> 0U) & STM32_DMA_ISR_MASK;
  2007c6:	6819      	ldr	r1, [r3, #0]
  2007c8:	f001 013d 	and.w	r1, r1, #61	; 0x3d
  DMA1->LIFCR = flags << 0U;
  2007cc:	6099      	str	r1, [r3, #8]
  if (dma_isr_redir[0].dma_func)
  2007ce:	6813      	ldr	r3, [r2, #0]
  2007d0:	b10b      	cbz	r3, 2007d6 <Vector6C+0x16>
    dma_isr_redir[0].dma_func(dma_isr_redir[0].dma_param, flags);
  2007d2:	6850      	ldr	r0, [r2, #4]
  2007d4:	4798      	blx	r3
}
  2007d6:	e8bd 4008 	ldmia.w	sp!, {r3, lr}
  OSAL_IRQ_EPILOGUE();
  2007da:	f7ff bde1 	b.w	2003a0 <_port_irq_epilogue>
  2007de:	bf00      	nop
  2007e0:	40026000 	.word	0x40026000
  2007e4:	20000a40 	.word	0x20000a40
	...

002007f0 <Vector4C>:
OSAL_IRQ_HANDLER(Vector4C) {
  uint32_t pr;

  OSAL_IRQ_PROLOGUE();

  pr = EXTI->PR;
  2007f0:	4a09      	ldr	r2, [pc, #36]	; (200818 <Vector4C+0x28>)
OSAL_IRQ_HANDLER(Vector4C) {
  2007f2:	b508      	push	{r3, lr}
  pr = EXTI->PR;
  2007f4:	6953      	ldr	r3, [r2, #20]
  pr &= EXTI->IMR & (1U << 22);
  2007f6:	6811      	ldr	r1, [r2, #0]
  2007f8:	400b      	ands	r3, r1
  2007fa:	f403 0380 	and.w	r3, r3, #4194304	; 0x400000
  EXTI->PR = pr;
  2007fe:	6153      	str	r3, [r2, #20]
  if (pr & (1U << 22))
  200800:	b12b      	cbz	r3, 20080e <Vector4C+0x1e>
    EXTD1.config->channels[22].cb(&EXTD1, 22);
  200802:	4806      	ldr	r0, [pc, #24]	; (20081c <Vector4C+0x2c>)
  200804:	2116      	movs	r1, #22
  200806:	6843      	ldr	r3, [r0, #4]
  200808:	f8d3 30b4 	ldr.w	r3, [r3, #180]	; 0xb4
  20080c:	4798      	blx	r3

  OSAL_IRQ_EPILOGUE();
}
  20080e:	e8bd 4008 	ldmia.w	sp!, {r3, lr}
  OSAL_IRQ_EPILOGUE();
  200812:	f7ff bdc5 	b.w	2003a0 <_port_irq_epilogue>
  200816:	bf00      	nop
  200818:	40013c00 	.word	0x40013c00
  20081c:	20000834 	.word	0x20000834

00200820 <Vector48>:
  pr = EXTI->PR;
  200820:	4a09      	ldr	r2, [pc, #36]	; (200848 <Vector48+0x28>)
OSAL_IRQ_HANDLER(Vector48) {
  200822:	b508      	push	{r3, lr}
  pr = EXTI->PR;
  200824:	6953      	ldr	r3, [r2, #20]
  pr &= EXTI->IMR & (1U << 21);
  200826:	6811      	ldr	r1, [r2, #0]
  200828:	400b      	ands	r3, r1
  20082a:	f403 1300 	and.w	r3, r3, #2097152	; 0x200000
  EXTI->PR = pr;
  20082e:	6153      	str	r3, [r2, #20]
  if (pr & (1U << 21))
  200830:	b12b      	cbz	r3, 20083e <Vector48+0x1e>
    EXTD1.config->channels[21].cb(&EXTD1, 21);
  200832:	4806      	ldr	r0, [pc, #24]	; (20084c <Vector48+0x2c>)
  200834:	2115      	movs	r1, #21
  200836:	6843      	ldr	r3, [r0, #4]
  200838:	f8d3 30ac 	ldr.w	r3, [r3, #172]	; 0xac
  20083c:	4798      	blx	r3
}
  20083e:	e8bd 4008 	ldmia.w	sp!, {r3, lr}
  OSAL_IRQ_EPILOGUE();
  200842:	f7ff bdad 	b.w	2003a0 <_port_irq_epilogue>
  200846:	bf00      	nop
  200848:	40013c00 	.word	0x40013c00
  20084c:	20000834 	.word	0x20000834

00200850 <Vector170>:
  pr = EXTI->PR;
  200850:	4a09      	ldr	r2, [pc, #36]	; (200878 <Vector170+0x28>)
OSAL_IRQ_HANDLER(Vector170) {
  200852:	b508      	push	{r3, lr}
  pr = EXTI->PR;
  200854:	6953      	ldr	r3, [r2, #20]
  pr &= EXTI->IMR & (1U << 20);
  200856:	6811      	ldr	r1, [r2, #0]
  200858:	400b      	ands	r3, r1
  20085a:	f403 1380 	and.w	r3, r3, #1048576	; 0x100000
  EXTI->PR = pr;
  20085e:	6153      	str	r3, [r2, #20]
  if (pr & (1U << 20))
  200860:	b12b      	cbz	r3, 20086e <Vector170+0x1e>
    EXTD1.config->channels[20].cb(&EXTD1, 20);
  200862:	4806      	ldr	r0, [pc, #24]	; (20087c <Vector170+0x2c>)
  200864:	2114      	movs	r1, #20
  200866:	6843      	ldr	r3, [r0, #4]
  200868:	f8d3 30a4 	ldr.w	r3, [r3, #164]	; 0xa4
  20086c:	4798      	blx	r3
}
  20086e:	e8bd 4008 	ldmia.w	sp!, {r3, lr}
  OSAL_IRQ_EPILOGUE();
  200872:	f7ff bd95 	b.w	2003a0 <_port_irq_epilogue>
  200876:	bf00      	nop
  200878:	40013c00 	.word	0x40013c00
  20087c:	20000834 	.word	0x20000834

00200880 <Vector138>:
  pr = EXTI->PR;
  200880:	4a09      	ldr	r2, [pc, #36]	; (2008a8 <Vector138+0x28>)
OSAL_IRQ_HANDLER(Vector138) {
  200882:	b508      	push	{r3, lr}
  pr = EXTI->PR;
  200884:	6953      	ldr	r3, [r2, #20]
  pr &= EXTI->IMR & (1U << 19);
  200886:	6811      	ldr	r1, [r2, #0]
  200888:	400b      	ands	r3, r1
  20088a:	f403 2300 	and.w	r3, r3, #524288	; 0x80000
  EXTI->PR = pr;
  20088e:	6153      	str	r3, [r2, #20]
  if (pr & (1U << 19))
  200890:	b12b      	cbz	r3, 20089e <Vector138+0x1e>
    EXTD1.config->channels[19].cb(&EXTD1, 19);
  200892:	4806      	ldr	r0, [pc, #24]	; (2008ac <Vector138+0x2c>)
  200894:	2113      	movs	r1, #19
  200896:	6843      	ldr	r3, [r0, #4]
  200898:	f8d3 309c 	ldr.w	r3, [r3, #156]	; 0x9c
  20089c:	4798      	blx	r3
}
  20089e:	e8bd 4008 	ldmia.w	sp!, {r3, lr}
  OSAL_IRQ_EPILOGUE();
  2008a2:	f7ff bd7d 	b.w	2003a0 <_port_irq_epilogue>
  2008a6:	bf00      	nop
  2008a8:	40013c00 	.word	0x40013c00
  2008ac:	20000834 	.word	0x20000834

002008b0 <VectorE8>:
  pr = EXTI->PR;
  2008b0:	4a09      	ldr	r2, [pc, #36]	; (2008d8 <VectorE8+0x28>)
OSAL_IRQ_HANDLER(VectorE8) {
  2008b2:	b508      	push	{r3, lr}
  pr = EXTI->PR;
  2008b4:	6953      	ldr	r3, [r2, #20]
  pr &= EXTI->IMR & (1U << 18);
  2008b6:	6811      	ldr	r1, [r2, #0]
  2008b8:	400b      	ands	r3, r1
  2008ba:	f403 2380 	and.w	r3, r3, #262144	; 0x40000
  EXTI->PR = pr;
  2008be:	6153      	str	r3, [r2, #20]
  if (pr & (1U << 18))
  2008c0:	b12b      	cbz	r3, 2008ce <VectorE8+0x1e>
    EXTD1.config->channels[18].cb(&EXTD1, 18);
  2008c2:	4806      	ldr	r0, [pc, #24]	; (2008dc <VectorE8+0x2c>)
  2008c4:	2112      	movs	r1, #18
  2008c6:	6843      	ldr	r3, [r0, #4]
  2008c8:	f8d3 3094 	ldr.w	r3, [r3, #148]	; 0x94
  2008cc:	4798      	blx	r3
}
  2008ce:	e8bd 4008 	ldmia.w	sp!, {r3, lr}
  OSAL_IRQ_EPILOGUE();
  2008d2:	f7ff bd65 	b.w	2003a0 <_port_irq_epilogue>
  2008d6:	bf00      	nop
  2008d8:	40013c00 	.word	0x40013c00
  2008dc:	20000834 	.word	0x20000834

002008e0 <VectorE4>:
  pr = EXTI->PR;
  2008e0:	4a09      	ldr	r2, [pc, #36]	; (200908 <VectorE4+0x28>)
OSAL_IRQ_HANDLER(VectorE4) {
  2008e2:	b508      	push	{r3, lr}
  pr = EXTI->PR;
  2008e4:	6953      	ldr	r3, [r2, #20]
  pr &= EXTI->IMR & (1U << 17);
  2008e6:	6811      	ldr	r1, [r2, #0]
  2008e8:	400b      	ands	r3, r1
  2008ea:	f403 3300 	and.w	r3, r3, #131072	; 0x20000
  EXTI->PR = pr;
  2008ee:	6153      	str	r3, [r2, #20]
  if (pr & (1U << 17))
  2008f0:	b12b      	cbz	r3, 2008fe <VectorE4+0x1e>
    EXTD1.config->channels[17].cb(&EXTD1, 17);
  2008f2:	4806      	ldr	r0, [pc, #24]	; (20090c <VectorE4+0x2c>)
  2008f4:	2111      	movs	r1, #17
  2008f6:	6843      	ldr	r3, [r0, #4]
  2008f8:	f8d3 308c 	ldr.w	r3, [r3, #140]	; 0x8c
  2008fc:	4798      	blx	r3
}
  2008fe:	e8bd 4008 	ldmia.w	sp!, {r3, lr}
  OSAL_IRQ_EPILOGUE();
  200902:	f7ff bd4d 	b.w	2003a0 <_port_irq_epilogue>
  200906:	bf00      	nop
  200908:	40013c00 	.word	0x40013c00
  20090c:	20000834 	.word	0x20000834

00200910 <Vector44>:
  pr = EXTI->PR;
  200910:	4a09      	ldr	r2, [pc, #36]	; (200938 <Vector44+0x28>)
OSAL_IRQ_HANDLER(Vector44) {
  200912:	b508      	push	{r3, lr}
  pr = EXTI->PR;
  200914:	6953      	ldr	r3, [r2, #20]
  pr &= EXTI->IMR & (1U << 16);
  200916:	6811      	ldr	r1, [r2, #0]
  200918:	400b      	ands	r3, r1
  20091a:	f403 3380 	and.w	r3, r3, #65536	; 0x10000
  EXTI->PR = pr;
  20091e:	6153      	str	r3, [r2, #20]
  if (pr & (1U << 16))
  200920:	b12b      	cbz	r3, 20092e <Vector44+0x1e>
    EXTD1.config->channels[16].cb(&EXTD1, 16);
  200922:	4806      	ldr	r0, [pc, #24]	; (20093c <Vector44+0x2c>)
  200924:	2110      	movs	r1, #16
  200926:	6843      	ldr	r3, [r0, #4]
  200928:	f8d3 3084 	ldr.w	r3, [r3, #132]	; 0x84
  20092c:	4798      	blx	r3
}
  20092e:	e8bd 4008 	ldmia.w	sp!, {r3, lr}
  OSAL_IRQ_EPILOGUE();
  200932:	f7ff bd35 	b.w	2003a0 <_port_irq_epilogue>
  200936:	bf00      	nop
  200938:	40013c00 	.word	0x40013c00
  20093c:	20000834 	.word	0x20000834

00200940 <VectorE0>:
  pr = EXTI->PR;
  200940:	4b1d      	ldr	r3, [pc, #116]	; (2009b8 <VectorE0+0x78>)
OSAL_IRQ_HANDLER(VectorE0) {
  200942:	b510      	push	{r4, lr}
  pr = EXTI->PR;
  200944:	695c      	ldr	r4, [r3, #20]
  pr &= EXTI->IMR & ((1U << 10) | (1U << 11) | (1U << 12) | (1U << 13) |
  200946:	681a      	ldr	r2, [r3, #0]
  200948:	4014      	ands	r4, r2
  20094a:	f404 427c 	and.w	r2, r4, #64512	; 0xfc00
  EXTI->PR = pr;
  20094e:	615a      	str	r2, [r3, #20]
  if (pr & (1U << 10))
  200950:	0562      	lsls	r2, r4, #21
  200952:	d42a      	bmi.n	2009aa <VectorE0+0x6a>
  if (pr & (1U << 11))
  200954:	0523      	lsls	r3, r4, #20
  200956:	d422      	bmi.n	20099e <VectorE0+0x5e>
  if (pr & (1U << 12))
  200958:	04e0      	lsls	r0, r4, #19
  20095a:	d41a      	bmi.n	200992 <VectorE0+0x52>
  if (pr & (1U << 13))
  20095c:	04a1      	lsls	r1, r4, #18
  20095e:	d412      	bmi.n	200986 <VectorE0+0x46>
  if (pr & (1U << 14))
  200960:	0462      	lsls	r2, r4, #17
  200962:	d40a      	bmi.n	20097a <VectorE0+0x3a>
  if (pr & (1U << 15))
  200964:	0423      	lsls	r3, r4, #16
  200966:	d504      	bpl.n	200972 <VectorE0+0x32>
    EXTD1.config->channels[15].cb(&EXTD1, 15);
  200968:	4814      	ldr	r0, [pc, #80]	; (2009bc <VectorE0+0x7c>)
  20096a:	210f      	movs	r1, #15
  20096c:	6843      	ldr	r3, [r0, #4]
  20096e:	6fdb      	ldr	r3, [r3, #124]	; 0x7c
  200970:	4798      	blx	r3
}
  200972:	e8bd 4010 	ldmia.w	sp!, {r4, lr}
  OSAL_IRQ_EPILOGUE();
  200976:	f7ff bd13 	b.w	2003a0 <_port_irq_epilogue>
    EXTD1.config->channels[14].cb(&EXTD1, 14);
  20097a:	4810      	ldr	r0, [pc, #64]	; (2009bc <VectorE0+0x7c>)
  20097c:	210e      	movs	r1, #14
  20097e:	6843      	ldr	r3, [r0, #4]
  200980:	6f5b      	ldr	r3, [r3, #116]	; 0x74
  200982:	4798      	blx	r3
  200984:	e7ee      	b.n	200964 <VectorE0+0x24>
    EXTD1.config->channels[13].cb(&EXTD1, 13);
  200986:	480d      	ldr	r0, [pc, #52]	; (2009bc <VectorE0+0x7c>)
  200988:	210d      	movs	r1, #13
  20098a:	6843      	ldr	r3, [r0, #4]
  20098c:	6edb      	ldr	r3, [r3, #108]	; 0x6c
  20098e:	4798      	blx	r3
  200990:	e7e6      	b.n	200960 <VectorE0+0x20>
    EXTD1.config->channels[12].cb(&EXTD1, 12);
  200992:	480a      	ldr	r0, [pc, #40]	; (2009bc <VectorE0+0x7c>)
  200994:	210c      	movs	r1, #12
  200996:	6843      	ldr	r3, [r0, #4]
  200998:	6e5b      	ldr	r3, [r3, #100]	; 0x64
  20099a:	4798      	blx	r3
  20099c:	e7de      	b.n	20095c <VectorE0+0x1c>
    EXTD1.config->channels[11].cb(&EXTD1, 11);
  20099e:	4807      	ldr	r0, [pc, #28]	; (2009bc <VectorE0+0x7c>)
  2009a0:	210b      	movs	r1, #11
  2009a2:	6843      	ldr	r3, [r0, #4]
  2009a4:	6ddb      	ldr	r3, [r3, #92]	; 0x5c
  2009a6:	4798      	blx	r3
  2009a8:	e7d6      	b.n	200958 <VectorE0+0x18>
    EXTD1.config->channels[10].cb(&EXTD1, 10);
  2009aa:	4804      	ldr	r0, [pc, #16]	; (2009bc <VectorE0+0x7c>)
  2009ac:	210a      	movs	r1, #10
  2009ae:	6843      	ldr	r3, [r0, #4]
  2009b0:	6d5b      	ldr	r3, [r3, #84]	; 0x54
  2009b2:	4798      	blx	r3
  2009b4:	e7ce      	b.n	200954 <VectorE0+0x14>
  2009b6:	bf00      	nop
  2009b8:	40013c00 	.word	0x40013c00
  2009bc:	20000834 	.word	0x20000834

002009c0 <Vector9C>:
  pr = EXTI->PR;
  2009c0:	4b19      	ldr	r3, [pc, #100]	; (200a28 <Vector9C+0x68>)
OSAL_IRQ_HANDLER(Vector9C) {
  2009c2:	b510      	push	{r4, lr}
  pr = EXTI->PR;
  2009c4:	695c      	ldr	r4, [r3, #20]
  pr &= EXTI->IMR & ((1U << 5) | (1U << 6) | (1U << 7) | (1U << 8) |
  2009c6:	681a      	ldr	r2, [r3, #0]
  2009c8:	4014      	ands	r4, r2
  2009ca:	f404 7278 	and.w	r2, r4, #992	; 0x3e0
  EXTI->PR = pr;
  2009ce:	615a      	str	r2, [r3, #20]
  if (pr & (1U << 5))
  2009d0:	06a3      	lsls	r3, r4, #26
  2009d2:	d422      	bmi.n	200a1a <Vector9C+0x5a>
  if (pr & (1U << 6))
  2009d4:	0660      	lsls	r0, r4, #25
  2009d6:	d41a      	bmi.n	200a0e <Vector9C+0x4e>
  if (pr & (1U << 7))
  2009d8:	0621      	lsls	r1, r4, #24
  2009da:	d412      	bmi.n	200a02 <Vector9C+0x42>
  if (pr & (1U << 8))
  2009dc:	05e2      	lsls	r2, r4, #23
  2009de:	d40a      	bmi.n	2009f6 <Vector9C+0x36>
  if (pr & (1U << 9))
  2009e0:	05a3      	lsls	r3, r4, #22
  2009e2:	d504      	bpl.n	2009ee <Vector9C+0x2e>
    EXTD1.config->channels[9].cb(&EXTD1, 9);
  2009e4:	4811      	ldr	r0, [pc, #68]	; (200a2c <Vector9C+0x6c>)
  2009e6:	2109      	movs	r1, #9
  2009e8:	6843      	ldr	r3, [r0, #4]
  2009ea:	6cdb      	ldr	r3, [r3, #76]	; 0x4c
  2009ec:	4798      	blx	r3
}
  2009ee:	e8bd 4010 	ldmia.w	sp!, {r4, lr}
  OSAL_IRQ_EPILOGUE();
  2009f2:	f7ff bcd5 	b.w	2003a0 <_port_irq_epilogue>
    EXTD1.config->channels[8].cb(&EXTD1, 8);
  2009f6:	480d      	ldr	r0, [pc, #52]	; (200a2c <Vector9C+0x6c>)
  2009f8:	2108      	movs	r1, #8
  2009fa:	6843      	ldr	r3, [r0, #4]
  2009fc:	6c5b      	ldr	r3, [r3, #68]	; 0x44
  2009fe:	4798      	blx	r3
  200a00:	e7ee      	b.n	2009e0 <Vector9C+0x20>
    EXTD1.config->channels[7].cb(&EXTD1, 7);
  200a02:	480a      	ldr	r0, [pc, #40]	; (200a2c <Vector9C+0x6c>)
  200a04:	2107      	movs	r1, #7
  200a06:	6843      	ldr	r3, [r0, #4]
  200a08:	6bdb      	ldr	r3, [r3, #60]	; 0x3c
  200a0a:	4798      	blx	r3
  200a0c:	e7e6      	b.n	2009dc <Vector9C+0x1c>
    EXTD1.config->channels[6].cb(&EXTD1, 6);
  200a0e:	4807      	ldr	r0, [pc, #28]	; (200a2c <Vector9C+0x6c>)
  200a10:	2106      	movs	r1, #6
  200a12:	6843      	ldr	r3, [r0, #4]
  200a14:	6b5b      	ldr	r3, [r3, #52]	; 0x34
  200a16:	4798      	blx	r3
  200a18:	e7de      	b.n	2009d8 <Vector9C+0x18>
    EXTD1.config->channels[5].cb(&EXTD1, 5);
  200a1a:	4804      	ldr	r0, [pc, #16]	; (200a2c <Vector9C+0x6c>)
  200a1c:	2105      	movs	r1, #5
  200a1e:	6843      	ldr	r3, [r0, #4]
  200a20:	6adb      	ldr	r3, [r3, #44]	; 0x2c
  200a22:	4798      	blx	r3
  200a24:	e7d6      	b.n	2009d4 <Vector9C+0x14>
  200a26:	bf00      	nop
  200a28:	40013c00 	.word	0x40013c00
  200a2c:	20000834 	.word	0x20000834

00200a30 <Vector68>:
  pr = EXTI->PR;
  200a30:	4a08      	ldr	r2, [pc, #32]	; (200a54 <Vector68+0x24>)
OSAL_IRQ_HANDLER(Vector68) {
  200a32:	b508      	push	{r3, lr}
  pr = EXTI->PR;
  200a34:	6953      	ldr	r3, [r2, #20]
  pr &= EXTI->IMR & (1U << 4);
  200a36:	6811      	ldr	r1, [r2, #0]
  200a38:	400b      	ands	r3, r1
  200a3a:	f003 0310 	and.w	r3, r3, #16
  EXTI->PR = pr;
  200a3e:	6153      	str	r3, [r2, #20]
  if (pr & (1U << 4))
  200a40:	b123      	cbz	r3, 200a4c <Vector68+0x1c>
    EXTD1.config->channels[4].cb(&EXTD1, 4);
  200a42:	4805      	ldr	r0, [pc, #20]	; (200a58 <Vector68+0x28>)
  200a44:	2104      	movs	r1, #4
  200a46:	6843      	ldr	r3, [r0, #4]
  200a48:	6a5b      	ldr	r3, [r3, #36]	; 0x24
  200a4a:	4798      	blx	r3
}
  200a4c:	e8bd 4008 	ldmia.w	sp!, {r3, lr}
  OSAL_IRQ_EPILOGUE();
  200a50:	f7ff bca6 	b.w	2003a0 <_port_irq_epilogue>
  200a54:	40013c00 	.word	0x40013c00
  200a58:	20000834 	.word	0x20000834
  200a5c:	00000000 	.word	0x00000000

00200a60 <Vector64>:
  pr = EXTI->PR;
  200a60:	4a08      	ldr	r2, [pc, #32]	; (200a84 <Vector64+0x24>)
OSAL_IRQ_HANDLER(Vector64) {
  200a62:	b508      	push	{r3, lr}
  pr = EXTI->PR;
  200a64:	6953      	ldr	r3, [r2, #20]
  pr &= EXTI->IMR & (1U << 3);
  200a66:	6811      	ldr	r1, [r2, #0]
  200a68:	400b      	ands	r3, r1
  200a6a:	f003 0308 	and.w	r3, r3, #8
  EXTI->PR = pr;
  200a6e:	6153      	str	r3, [r2, #20]
  if (pr & (1U << 3))
  200a70:	b123      	cbz	r3, 200a7c <Vector64+0x1c>
    EXTD1.config->channels[3].cb(&EXTD1, 3);
  200a72:	4805      	ldr	r0, [pc, #20]	; (200a88 <Vector64+0x28>)
  200a74:	2103      	movs	r1, #3
  200a76:	6843      	ldr	r3, [r0, #4]
  200a78:	69db      	ldr	r3, [r3, #28]
  200a7a:	4798      	blx	r3
}
  200a7c:	e8bd 4008 	ldmia.w	sp!, {r3, lr}
  OSAL_IRQ_EPILOGUE();
  200a80:	f7ff bc8e 	b.w	2003a0 <_port_irq_epilogue>
  200a84:	40013c00 	.word	0x40013c00
  200a88:	20000834 	.word	0x20000834
  200a8c:	00000000 	.word	0x00000000

00200a90 <Vector60>:
  pr = EXTI->PR;
  200a90:	4a08      	ldr	r2, [pc, #32]	; (200ab4 <Vector60+0x24>)
OSAL_IRQ_HANDLER(Vector60) {
  200a92:	b508      	push	{r3, lr}
  pr = EXTI->PR;
  200a94:	6953      	ldr	r3, [r2, #20]
  pr &= EXTI->IMR & (1U << 2);
  200a96:	6811      	ldr	r1, [r2, #0]
  200a98:	400b      	ands	r3, r1
  200a9a:	f003 0304 	and.w	r3, r3, #4
  EXTI->PR = pr;
  200a9e:	6153      	str	r3, [r2, #20]
  if (pr & (1U << 2))
  200aa0:	b123      	cbz	r3, 200aac <Vector60+0x1c>
    EXTD1.config->channels[2].cb(&EXTD1, 2);
  200aa2:	4805      	ldr	r0, [pc, #20]	; (200ab8 <Vector60+0x28>)
  200aa4:	2102      	movs	r1, #2
  200aa6:	6843      	ldr	r3, [r0, #4]
  200aa8:	695b      	ldr	r3, [r3, #20]
  200aaa:	4798      	blx	r3
}
  200aac:	e8bd 4008 	ldmia.w	sp!, {r3, lr}
  OSAL_IRQ_EPILOGUE();
  200ab0:	f7ff bc76 	b.w	2003a0 <_port_irq_epilogue>
  200ab4:	40013c00 	.word	0x40013c00
  200ab8:	20000834 	.word	0x20000834
  200abc:	00000000 	.word	0x00000000

00200ac0 <Vector5C>:
  pr = EXTI->PR;
  200ac0:	4a08      	ldr	r2, [pc, #32]	; (200ae4 <Vector5C+0x24>)
OSAL_IRQ_HANDLER(Vector5C) {
  200ac2:	b508      	push	{r3, lr}
  pr = EXTI->PR;
  200ac4:	6953      	ldr	r3, [r2, #20]
  pr &= EXTI->IMR & (1U << 1);
  200ac6:	6811      	ldr	r1, [r2, #0]
  200ac8:	400b      	ands	r3, r1
  200aca:	f003 0302 	and.w	r3, r3, #2
  EXTI->PR = pr;
  200ace:	6153      	str	r3, [r2, #20]
  if (pr & (1U << 1))
  200ad0:	b123      	cbz	r3, 200adc <Vector5C+0x1c>
    EXTD1.config->channels[1].cb(&EXTD1, 1);
  200ad2:	4805      	ldr	r0, [pc, #20]	; (200ae8 <Vector5C+0x28>)
  200ad4:	2101      	movs	r1, #1
  200ad6:	6843      	ldr	r3, [r0, #4]
  200ad8:	68db      	ldr	r3, [r3, #12]
  200ada:	4798      	blx	r3
}
  200adc:	e8bd 4008 	ldmia.w	sp!, {r3, lr}
  OSAL_IRQ_EPILOGUE();
  200ae0:	f7ff bc5e 	b.w	2003a0 <_port_irq_epilogue>
  200ae4:	40013c00 	.word	0x40013c00
  200ae8:	20000834 	.word	0x20000834
  200aec:	00000000 	.word	0x00000000

00200af0 <Vector58>:
  pr = EXTI->PR;
  200af0:	4a08      	ldr	r2, [pc, #32]	; (200b14 <Vector58+0x24>)
OSAL_IRQ_HANDLER(Vector58) {
  200af2:	b508      	push	{r3, lr}
  pr = EXTI->PR;
  200af4:	6953      	ldr	r3, [r2, #20]
  pr &= EXTI->IMR & (1U << 0);
  200af6:	6811      	ldr	r1, [r2, #0]
  200af8:	400b      	ands	r3, r1
  200afa:	f003 0301 	and.w	r3, r3, #1
  EXTI->PR = pr;
  200afe:	6153      	str	r3, [r2, #20]
  if (pr & (1U << 0))
  200b00:	b123      	cbz	r3, 200b0c <Vector58+0x1c>
    EXTD1.config->channels[0].cb(&EXTD1, 0);
  200b02:	4805      	ldr	r0, [pc, #20]	; (200b18 <Vector58+0x28>)
  200b04:	2100      	movs	r1, #0
  200b06:	6843      	ldr	r3, [r0, #4]
  200b08:	685b      	ldr	r3, [r3, #4]
  200b0a:	4798      	blx	r3
}
  200b0c:	e8bd 4008 	ldmia.w	sp!, {r3, lr}
  OSAL_IRQ_EPILOGUE();
  200b10:	f7ff bc46 	b.w	2003a0 <_port_irq_epilogue>
  200b14:	40013c00 	.word	0x40013c00
  200b18:	20000834 	.word	0x20000834
  200b1c:	00000000 	.word	0x00000000

00200b20 <SVC_Handler>:
void SVC_Handler(void) {
  200b20:	b480      	push	{r7}
  200b22:	af00      	add	r7, sp, #0
  __ASM volatile ("MRS %0, psp\n"  : "=r" (result) );
  200b24:	f3ef 8309 	mrs	r3, PSP
  ctxp++;
  200b28:	3320      	adds	r3, #32
  __ASM volatile ("MSR psp, %0\n" : : "r" (topOfProcStack) : "sp");
  200b2a:	f383 8809 	msr	PSP, r3
  __ASM volatile ("MSR basepri, %0" : : "r" (value) : "memory");
  200b2e:	2300      	movs	r3, #0
  200b30:	f383 8811 	msr	BASEPRI, r3
}
  200b34:	46bd      	mov	sp, r7
  200b36:	bc80      	pop	{r7}
  200b38:	4770      	bx	lr
  200b3a:	bf00      	nop
  200b3c:	0000      	movs	r0, r0
	...

00200b40 <chCoreAllocAligned>:
 * @return              A pointer to the allocated memory block.
 * @retval NULL         allocation failed, core memory exhausted.
 *
 * @api
 */
void *chCoreAllocAligned(size_t size, unsigned align) {
  200b40:	b470      	push	{r4, r5, r6}
  200b42:	2320      	movs	r3, #32
  200b44:	f383 8811 	msr	BASEPRI, r3
  p = (uint8_t *)MEM_ALIGN_NEXT(nextmem, align);
  200b48:	4e0d      	ldr	r6, [pc, #52]	; (200b80 <chCoreAllocAligned+0x40>)
  size = MEM_ALIGN_NEXT(size, align);
  200b4a:	1e4a      	subs	r2, r1, #1
  200b4c:	424d      	negs	r5, r1
  if (((size_t)endmem - (size_t)p) < size) {
  200b4e:	4c0d      	ldr	r4, [pc, #52]	; (200b84 <chCoreAllocAligned+0x44>)
  p = (uint8_t *)MEM_ALIGN_NEXT(nextmem, align);
  200b50:	6833      	ldr	r3, [r6, #0]
  size = MEM_ALIGN_NEXT(size, align);
  200b52:	4402      	add	r2, r0
  if (((size_t)endmem - (size_t)p) < size) {
  200b54:	6824      	ldr	r4, [r4, #0]
  p = (uint8_t *)MEM_ALIGN_NEXT(nextmem, align);
  200b56:	3b01      	subs	r3, #1
  size = MEM_ALIGN_NEXT(size, align);
  200b58:	402a      	ands	r2, r5
  p = (uint8_t *)MEM_ALIGN_NEXT(nextmem, align);
  200b5a:	1858      	adds	r0, r3, r1
  200b5c:	4028      	ands	r0, r5
  if (((size_t)endmem - (size_t)p) < size) {
  200b5e:	1a23      	subs	r3, r4, r0
  200b60:	429a      	cmp	r2, r3
  200b62:	d806      	bhi.n	200b72 <chCoreAllocAligned+0x32>
  nextmem = p + size;
  200b64:	4402      	add	r2, r0
  200b66:	2300      	movs	r3, #0
  200b68:	6032      	str	r2, [r6, #0]
  200b6a:	f383 8811 	msr	BASEPRI, r3
  chSysLock();
  p = chCoreAllocAlignedI(size, align);
  chSysUnlock();

  return p;
}
  200b6e:	bc70      	pop	{r4, r5, r6}
  200b70:	4770      	bx	lr
    return NULL;
  200b72:	2000      	movs	r0, #0
  200b74:	2300      	movs	r3, #0
  200b76:	f383 8811 	msr	BASEPRI, r3
}
  200b7a:	bc70      	pop	{r4, r5, r6}
  200b7c:	4770      	bx	lr
  200b7e:	bf00      	nop
  200b80:	20000ac8 	.word	0x20000ac8
  200b84:	20000ac4 	.word	0x20000ac4
	...

00200b90 <wakeup>:
  200b90:	2320      	movs	r3, #32
  200b92:	f383 8811 	msr	BASEPRI, r3
  switch (tp->state) {
  200b96:	f890 3020 	ldrb.w	r3, [r0, #32]
  200b9a:	2b07      	cmp	r3, #7
  200b9c:	d80e      	bhi.n	200bbc <wakeup+0x2c>
  200b9e:	e8df f003 	tbb	[pc, r3]
  200ba2:	0d28      	.short	0x0d28
  200ba4:	0408240d 	.word	0x0408240d
  200ba8:	080d      	.short	0x080d
    chSemFastSignalI(tp->u.wtsemp);
  200baa:	6a42      	ldr	r2, [r0, #36]	; 0x24
 */
static inline void chSemFastSignalI(semaphore_t *sp) {

  chDbgCheckClassI();

  sp->cnt++;
  200bac:	6893      	ldr	r3, [r2, #8]
  200bae:	3301      	adds	r3, #1
  200bb0:	6093      	str	r3, [r2, #8]
  return tp;
}

static inline thread_t *queue_dequeue(thread_t *tp) {

  tp->queue.prev->queue.next = tp->queue.next;
  200bb2:	e890 000c 	ldmia.w	r0, {r2, r3}
  200bb6:	601a      	str	r2, [r3, #0]
  tp->queue.next->queue.prev = tp->queue.prev;
  200bb8:	6802      	ldr	r2, [r0, #0]
  200bba:	6053      	str	r3, [r2, #4]
  tp->state = CH_STATE_READY;
  200bbc:	2200      	movs	r2, #0
  200bbe:	6881      	ldr	r1, [r0, #8]
  cp = (thread_t *)&ch.rlist.queue;
  200bc0:	4b0e      	ldr	r3, [pc, #56]	; (200bfc <wakeup+0x6c>)
  tp->state = CH_STATE_READY;
  200bc2:	f880 2020 	strb.w	r2, [r0, #32]
static void wakeup(void *p) {
  200bc6:	b410      	push	{r4}
  tp->u.rdymsg = MSG_TIMEOUT;
  200bc8:	f04f 34ff 	mov.w	r4, #4294967295
  200bcc:	6244      	str	r4, [r0, #36]	; 0x24
    cp = cp->queue.next;
  200bce:	681b      	ldr	r3, [r3, #0]
  } while (cp->prio >= tp->prio);
  200bd0:	689a      	ldr	r2, [r3, #8]
  200bd2:	428a      	cmp	r2, r1
  200bd4:	d2fb      	bcs.n	200bce <wakeup+0x3e>
  tp->queue.prev             = cp->queue.prev;
  200bd6:	685a      	ldr	r2, [r3, #4]
  200bd8:	2100      	movs	r1, #0
  tp->queue.next             = cp;
  200bda:	6003      	str	r3, [r0, #0]
  tp->queue.prev             = cp->queue.prev;
  200bdc:	6042      	str	r2, [r0, #4]
  tp->queue.prev->queue.next = tp;
  200bde:	6010      	str	r0, [r2, #0]
  cp->queue.prev             = tp;
  200be0:	6058      	str	r0, [r3, #4]
  200be2:	f381 8811 	msr	BASEPRI, r1
}
  200be6:	bc10      	pop	{r4}
  200be8:	4770      	bx	lr
    *tp->u.wttrp = NULL;
  200bea:	6a43      	ldr	r3, [r0, #36]	; 0x24
  200bec:	2200      	movs	r2, #0
  200bee:	601a      	str	r2, [r3, #0]
  200bf0:	e7e4      	b.n	200bbc <wakeup+0x2c>
  200bf2:	2300      	movs	r3, #0
  200bf4:	f383 8811 	msr	BASEPRI, r3
  200bf8:	4770      	bx	lr
  200bfa:	bf00      	nop
  200bfc:	20000c98 	.word	0x20000c98

00200c00 <_idle_thread.lto_priv.54>:
 *          that this thread is executed only if there are no other ready
 *          threads in the system.
 *
 * @param[in] p         the thread parameter, unused in this scenario
 */
static void _idle_thread(void *p) {
  200c00:	e7fe      	b.n	200c00 <_idle_thread.lto_priv.54>
  200c02:	bf00      	nop
	...

00200c10 <BusFault_Handler>:
 *
 * @notapi
 */
/*lint -save -e9075 [8.4] All symbols are invoked from asm context.*/
__attribute__((weak))
void _unhandled_exception(void) {
  200c10:	e7fe      	b.n	200c10 <BusFault_Handler>
  200c12:	bf00      	nop
	...

00200c20 <Vector188>:
/**
 * @brief   UART7 interrupt handler.
 *
 * @isr
 */
OSAL_IRQ_HANDLER(STM32_UART7_HANDLER) {
  200c20:	e92d 41f0 	stmdb	sp!, {r4, r5, r6, r7, r8, lr}
  USART_TypeDef *u = sdp->usart;
  200c24:	4d53      	ldr	r5, [pc, #332]	; (200d74 <Vector188+0x154>)
  200c26:	6d6e      	ldr	r6, [r5, #84]	; 0x54
  uint32_t cr1 = u->CR1;
  200c28:	6837      	ldr	r7, [r6, #0]
  isr = u->ISR;
  200c2a:	69f4      	ldr	r4, [r6, #28]
  if (isr & (USART_ISR_ORE | USART_ISR_NE | USART_ISR_FE  | USART_ISR_PE))
  200c2c:	0722      	lsls	r2, r4, #28
  u->ICR = isr;
  200c2e:	6234      	str	r4, [r6, #32]
  if (isr & (USART_ISR_ORE | USART_ISR_NE | USART_ISR_FE  | USART_ISR_PE))
  200c30:	d146      	bne.n	200cc0 <Vector188+0xa0>
  if (isr & USART_ISR_LBDF) {
  200c32:	05e3      	lsls	r3, r4, #23
  200c34:	d439      	bmi.n	200caa <Vector188+0x8a>
  if (isr & USART_ISR_RXNE) {
  200c36:	06a0      	lsls	r0, r4, #26
  200c38:	d416      	bmi.n	200c68 <Vector188+0x48>
  if ((cr1 & USART_CR1_TXEIE) && (isr & USART_ISR_TXE)) {
  200c3a:	0639      	lsls	r1, r7, #24
  200c3c:	d501      	bpl.n	200c42 <Vector188+0x22>
  200c3e:	0622      	lsls	r2, r4, #24
  200c40:	d459      	bmi.n	200cf6 <Vector188+0xd6>
  if (isr & USART_ISR_TC) {
  200c42:	0663      	lsls	r3, r4, #25
  200c44:	d50c      	bpl.n	200c60 <Vector188+0x40>
  200c46:	2320      	movs	r3, #32
  200c48:	f383 8811 	msr	BASEPRI, r3
    if (oqIsEmptyI(&sdp->oqueue))
  200c4c:	6c6a      	ldr	r2, [r5, #68]	; 0x44
  200c4e:	6cab      	ldr	r3, [r5, #72]	; 0x48
  200c50:	429a      	cmp	r2, r3
  200c52:	d06f      	beq.n	200d34 <Vector188+0x114>
    u->CR1 = cr1 & ~USART_CR1_TCIE;
  200c54:	f027 0740 	bic.w	r7, r7, #64	; 0x40
  200c58:	2300      	movs	r3, #0
  200c5a:	6037      	str	r7, [r6, #0]
  200c5c:	f383 8811 	msr	BASEPRI, r3
  OSAL_IRQ_PROLOGUE();

  serve_interrupt(&SD7);

  OSAL_IRQ_EPILOGUE();
}
  200c60:	e8bd 41f0 	ldmia.w	sp!, {r4, r5, r6, r7, r8, lr}
  OSAL_IRQ_EPILOGUE();
  200c64:	f7ff bb9c 	b.w	2003a0 <_port_irq_epilogue>
  200c68:	2320      	movs	r3, #32
  200c6a:	f383 8811 	msr	BASEPRI, r3
    sdIncomingDataI(sdp, (uint8_t)u->RDR & sdp->rxmask);
  200c6e:	6a72      	ldr	r2, [r6, #36]	; 0x24
  200c70:	f895 105c 	ldrb.w	r1, [r5, #92]	; 0x5c
void sdIncomingDataI(SerialDriver *sdp, uint8_t b) {

  osalDbgCheckClassI();
  osalDbgCheck(sdp != NULL);

  if (iqIsEmptyI(&sdp->iqueue))
  200c74:	696b      	ldr	r3, [r5, #20]
  200c76:	ea01 0802 	and.w	r8, r1, r2
  200c7a:	2b00      	cmp	r3, #0
  200c7c:	d061      	beq.n	200d42 <Vector188+0x122>
 */
msg_t iqPutI(input_queue_t *iqp, uint8_t b) {

  osalDbgCheckClassI();

  if (iqIsFullI(iqp)) {
  200c7e:	6a2b      	ldr	r3, [r5, #32]
  200c80:	6a6a      	ldr	r2, [r5, #36]	; 0x24
  200c82:	4293      	cmp	r3, r2
  200c84:	d061      	beq.n	200d4a <Vector188+0x12a>
    return MSG_TIMEOUT;
  }

  iqp->q_counter++;
  200c86:	696a      	ldr	r2, [r5, #20]
  *iqp->q_wrptr++ = b;
  200c88:	1c59      	adds	r1, r3, #1
  iqp->q_counter++;
  200c8a:	3201      	adds	r2, #1
  *iqp->q_wrptr++ = b;
  200c8c:	6229      	str	r1, [r5, #32]
  iqp->q_counter++;
  200c8e:	616a      	str	r2, [r5, #20]
  *iqp->q_wrptr++ = b;
  200c90:	f883 8000 	strb.w	r8, [r3]
  if (iqp->q_wrptr >= iqp->q_top) {
  200c94:	6a2a      	ldr	r2, [r5, #32]
  200c96:	69eb      	ldr	r3, [r5, #28]
  200c98:	429a      	cmp	r2, r3
  200c9a:	d248      	bcs.n	200d2e <Vector188+0x10e>
 *
 * @iclass
 */
static inline void osalThreadDequeueNextI(threads_queue_t *tqp, msg_t msg) {

  chThdDequeueNextI(tqp, msg);
  200c9c:	4836      	ldr	r0, [pc, #216]	; (200d78 <Vector188+0x158>)
  200c9e:	f001 fac7 	bl	202230 <chThdDequeueNextI.constprop.35>
  200ca2:	2300      	movs	r3, #0
  200ca4:	f383 8811 	msr	BASEPRI, r3
  200ca8:	e7c7      	b.n	200c3a <Vector188+0x1a>
  200caa:	2320      	movs	r3, #32
  200cac:	f383 8811 	msr	BASEPRI, r3
 * @iclass
 */
static inline void osalEventBroadcastFlagsI(event_source_t *esp,
                                            eventflags_t flags) {

  chEvtBroadcastFlagsI(esp, flags);
  200cb0:	f44f 7000 	mov.w	r0, #512	; 0x200
  200cb4:	f001 facc 	bl	202250 <chEvtBroadcastFlagsI.constprop.34>
  200cb8:	2300      	movs	r3, #0
  200cba:	f383 8811 	msr	BASEPRI, r3
  200cbe:	e7ba      	b.n	200c36 <Vector188+0x16>
    sts |= SD_OVERRUN_ERROR;
  200cc0:	f014 0f08 	tst.w	r4, #8
  200cc4:	bf0c      	ite	eq
  200cc6:	2000      	moveq	r0, #0
  200cc8:	2080      	movne	r0, #128	; 0x80
  if (isr & USART_ISR_PE)
  200cca:	07e3      	lsls	r3, r4, #31
  200ccc:	f04f 0320 	mov.w	r3, #32
    sts |= SD_PARITY_ERROR;
  200cd0:	bf48      	it	mi
  200cd2:	f040 0020 	orrmi.w	r0, r0, #32
  if (isr & USART_ISR_FE)
  200cd6:	07a1      	lsls	r1, r4, #30
    sts |= SD_FRAMING_ERROR;
  200cd8:	bf48      	it	mi
  200cda:	f040 0040 	orrmi.w	r0, r0, #64	; 0x40
  if (isr & USART_ISR_NE)
  200cde:	0762      	lsls	r2, r4, #29
    sts |= SD_NOISE_ERROR;
  200ce0:	bf48      	it	mi
  200ce2:	f440 7080 	orrmi.w	r0, r0, #256	; 0x100
  200ce6:	f383 8811 	msr	BASEPRI, r3
  200cea:	f001 fab1 	bl	202250 <chEvtBroadcastFlagsI.constprop.34>
  200cee:	2300      	movs	r3, #0
  200cf0:	f383 8811 	msr	BASEPRI, r3
  200cf4:	e79d      	b.n	200c32 <Vector188+0x12>
  200cf6:	2320      	movs	r3, #32
  200cf8:	f383 8811 	msr	BASEPRI, r3
msg_t oqGetI(output_queue_t *oqp) {
  uint8_t b;

  osalDbgCheckClassI();

  if (oqIsEmptyI(oqp)) {
  200cfc:	6cab      	ldr	r3, [r5, #72]	; 0x48
  200cfe:	6c6a      	ldr	r2, [r5, #68]	; 0x44
  200d00:	429a      	cmp	r2, r3
  200d02:	d02a      	beq.n	200d5a <Vector188+0x13a>
    return MSG_TIMEOUT;
  }

  oqp->q_counter++;
  200d04:	6baa      	ldr	r2, [r5, #56]	; 0x38
  b = *oqp->q_rdptr++;
  200d06:	1c58      	adds	r0, r3, #1
  if (oqp->q_rdptr >= oqp->q_top) {
  200d08:	6c29      	ldr	r1, [r5, #64]	; 0x40
  oqp->q_counter++;
  200d0a:	3201      	adds	r2, #1
  b = *oqp->q_rdptr++;
  200d0c:	64a8      	str	r0, [r5, #72]	; 0x48
  if (oqp->q_rdptr >= oqp->q_top) {
  200d0e:	4288      	cmp	r0, r1
  oqp->q_counter++;
  200d10:	63aa      	str	r2, [r5, #56]	; 0x38
  b = *oqp->q_rdptr++;
  200d12:	f893 8000 	ldrb.w	r8, [r3]
  if (oqp->q_rdptr >= oqp->q_top) {
  200d16:	d301      	bcc.n	200d1c <Vector188+0xfc>
    oqp->q_rdptr = oqp->q_buffer;
  200d18:	6beb      	ldr	r3, [r5, #60]	; 0x3c
  200d1a:	64ab      	str	r3, [r5, #72]	; 0x48
  chThdDequeueNextI(tqp, msg);
  200d1c:	4817      	ldr	r0, [pc, #92]	; (200d7c <Vector188+0x15c>)
  200d1e:	f001 fa87 	bl	202230 <chThdDequeueNextI.constprop.35>
      u->TDR = b;
  200d22:	f8c6 8028 	str.w	r8, [r6, #40]	; 0x28
  200d26:	2300      	movs	r3, #0
  200d28:	f383 8811 	msr	BASEPRI, r3
  200d2c:	e789      	b.n	200c42 <Vector188+0x22>
    iqp->q_wrptr = iqp->q_buffer;
  200d2e:	69ab      	ldr	r3, [r5, #24]
  200d30:	622b      	str	r3, [r5, #32]
  200d32:	e7b3      	b.n	200c9c <Vector188+0x7c>
    if (oqIsEmptyI(&sdp->oqueue))
  200d34:	6bab      	ldr	r3, [r5, #56]	; 0x38
  200d36:	2b00      	cmp	r3, #0
  200d38:	d08c      	beq.n	200c54 <Vector188+0x34>
  chEvtBroadcastFlagsI(esp, flags);
  200d3a:	2010      	movs	r0, #16
  200d3c:	f001 fa88 	bl	202250 <chEvtBroadcastFlagsI.constprop.34>
  200d40:	e788      	b.n	200c54 <Vector188+0x34>
  200d42:	2004      	movs	r0, #4
  200d44:	f001 fa84 	bl	202250 <chEvtBroadcastFlagsI.constprop.34>
  200d48:	e799      	b.n	200c7e <Vector188+0x5e>
  if (iqIsFullI(iqp)) {
  200d4a:	696a      	ldr	r2, [r5, #20]
  200d4c:	2a00      	cmp	r2, #0
  200d4e:	d09a      	beq.n	200c86 <Vector188+0x66>
  200d50:	f44f 6080 	mov.w	r0, #1024	; 0x400
  200d54:	f001 fa7c 	bl	202250 <chEvtBroadcastFlagsI.constprop.34>
  200d58:	e7a3      	b.n	200ca2 <Vector188+0x82>
  if (oqIsEmptyI(oqp)) {
  200d5a:	6baa      	ldr	r2, [r5, #56]	; 0x38
  200d5c:	2a00      	cmp	r2, #0
  200d5e:	d0d1      	beq.n	200d04 <Vector188+0xe4>
  200d60:	2008      	movs	r0, #8
  200d62:	f001 fa75 	bl	202250 <chEvtBroadcastFlagsI.constprop.34>
      u->CR1 = (cr1 & ~USART_CR1_TXEIE) | USART_CR1_TCIE;
  200d66:	f027 03c0 	bic.w	r3, r7, #192	; 0xc0
  200d6a:	f043 0340 	orr.w	r3, r3, #64	; 0x40
  200d6e:	6033      	str	r3, [r6, #0]
  200d70:	e7d9      	b.n	200d26 <Vector188+0x106>
  200d72:	bf00      	nop
  200d74:	20000c38 	.word	0x20000c38
  200d78:	20000c44 	.word	0x20000c44
  200d7c:	20000c68 	.word	0x20000c68

00200d80 <chSchGoSleepS>:
  thread_t *otp = currp;
  200d80:	4b08      	ldr	r3, [pc, #32]	; (200da4 <chSchGoSleepS+0x24>)
  thread_t *tp = tqp->next;
  200d82:	681a      	ldr	r2, [r3, #0]
  200d84:	6999      	ldr	r1, [r3, #24]
void chSchGoSleepS(tstate_t newstate) {
  200d86:	b430      	push	{r4, r5}
  otp->state = newstate;
  200d88:	f881 0020 	strb.w	r0, [r1, #32]
  currp->state = CH_STATE_CURRENT;
  200d8c:	2501      	movs	r5, #1
  tqp->next             = tp->queue.next;
  200d8e:	6814      	ldr	r4, [r2, #0]
  chSysSwitch(currp, otp);
  200d90:	4610      	mov	r0, r2
  tqp->next->queue.prev = (thread_t *)tqp;
  200d92:	6063      	str	r3, [r4, #4]
  tqp->next             = tp->queue.next;
  200d94:	601c      	str	r4, [r3, #0]
  currp->state = CH_STATE_CURRENT;
  200d96:	f882 5020 	strb.w	r5, [r2, #32]
  currp = queue_fifo_remove(&ch.rlist.queue);
  200d9a:	619a      	str	r2, [r3, #24]
}
  200d9c:	bc30      	pop	{r4, r5}
  chSysSwitch(currp, otp);
  200d9e:	f7ff ba99 	b.w	2002d4 <_port_switch>
  200da2:	bf00      	nop
  200da4:	20000c98 	.word	0x20000c98
	...

00200db0 <__early_init>:
/**
 * @brief   Early initialization code.
 * @details This initialization must be performed just after stack setup
 *          and before any other initialization.
 */
void __early_init(void) {
  200db0:	b430      	push	{r4, r5}
void stm32_clock_init(void) {

#if !STM32_NO_INIT
  /* PWR clock enabled.*/
#if defined(HAL_USE_RTC) && defined(RCC_APB1ENR_RTCEN)
  RCC->APB1ENR = RCC_APB1ENR_PWREN | RCC_APB1ENR_RTCEN;
  200db2:	4b33      	ldr	r3, [pc, #204]	; (200e80 <__early_init+0xd0>)
#else
  RCC->APB1ENR = RCC_APB1ENR_PWREN;
#endif

  /* PWR initialization.*/
  PWR->CR1 = STM32_VOS;
  200db4:	f44f 4040 	mov.w	r0, #49152	; 0xc000
  200db8:	4a32      	ldr	r2, [pc, #200]	; (200e84 <__early_init+0xd4>)
  RCC->APB1ENR = RCC_APB1ENR_PWREN | RCC_APB1ENR_RTCEN;
  200dba:	4c33      	ldr	r4, [pc, #204]	; (200e88 <__early_init+0xd8>)

  /* HSI setup, it enforces the reset situation in order to handle possible
     problems with JTAG probes and re-initializations.*/
  RCC->CR |= RCC_CR_HSION;                  /* Make sure HSI is ON.         */
  while (!(RCC->CR & RCC_CR_HSIRDY))
  200dbc:	4619      	mov	r1, r3
  RCC->APB1ENR = RCC_APB1ENR_PWREN | RCC_APB1ENR_RTCEN;
  200dbe:	641c      	str	r4, [r3, #64]	; 0x40
  PWR->CR1 = STM32_VOS;
  200dc0:	6010      	str	r0, [r2, #0]
  RCC->CR |= RCC_CR_HSION;                  /* Make sure HSI is ON.         */
  200dc2:	681a      	ldr	r2, [r3, #0]
  200dc4:	f042 0201 	orr.w	r2, r2, #1
  200dc8:	601a      	str	r2, [r3, #0]
  while (!(RCC->CR & RCC_CR_HSIRDY))
  200dca:	680b      	ldr	r3, [r1, #0]
  200dcc:	079b      	lsls	r3, r3, #30
  200dce:	d5fc      	bpl.n	200dca <__early_init+0x1a>
    ;                                       /* Wait until HSI is stable.    */

  /* HSI is selected as new source without touching the other fields in
     CFGR. Clearing the register has to be postponed after HSI is the
     new source.*/
  RCC->CFGR &= ~RCC_CFGR_SW;                /* Reset SW */
  200dd0:	688b      	ldr	r3, [r1, #8]
  RCC->CFGR |= RCC_CFGR_SWS_HSI;            /* Select HSI as internal*/
  while ((RCC->CFGR & RCC_CFGR_SWS) != RCC_CFGR_SWS_HSI)
  200dd2:	4a2b      	ldr	r2, [pc, #172]	; (200e80 <__early_init+0xd0>)
  RCC->CFGR &= ~RCC_CFGR_SW;                /* Reset SW */
  200dd4:	f023 0303 	bic.w	r3, r3, #3
  200dd8:	608b      	str	r3, [r1, #8]
  RCC->CFGR |= RCC_CFGR_SWS_HSI;            /* Select HSI as internal*/
  200dda:	688b      	ldr	r3, [r1, #8]
  200ddc:	608b      	str	r3, [r1, #8]
  while ((RCC->CFGR & RCC_CFGR_SWS) != RCC_CFGR_SWS_HSI)
  200dde:	6893      	ldr	r3, [r2, #8]
  200de0:	f013 030c 	ands.w	r3, r3, #12
  200de4:	d1fb      	bne.n	200dde <__early_init+0x2e>
    ;                                       /* Wait until HSI is selected.  */

  /* Registers finally cleared to reset values.*/
  RCC->CR &= RCC_CR_HSITRIM | RCC_CR_HSION; /* CR Reset value.              */
  200de6:	6810      	ldr	r0, [r2, #0]
  RCC->CR |= RCC_CR_HSEON | RCC_CR_HSEBYP;
#else
  /* No HSE Bypass.*/
  RCC->CR |= RCC_CR_HSEON;
#endif
  while ((RCC->CR & RCC_CR_HSERDY) == 0)
  200de8:	4925      	ldr	r1, [pc, #148]	; (200e80 <__early_init+0xd0>)
  RCC->CR &= RCC_CR_HSITRIM | RCC_CR_HSION; /* CR Reset value.              */
  200dea:	f000 00f9 	and.w	r0, r0, #249	; 0xf9
  200dee:	6010      	str	r0, [r2, #0]
  RCC->CFGR = 0;                            /* CFGR reset value.            */
  200df0:	6093      	str	r3, [r2, #8]
  RCC->CR |= RCC_CR_HSEON | RCC_CR_HSEBYP;
  200df2:	6813      	ldr	r3, [r2, #0]
  200df4:	f443 23a0 	orr.w	r3, r3, #327680	; 0x50000
  200df8:	6013      	str	r3, [r2, #0]
  while ((RCC->CR & RCC_CR_HSERDY) == 0)
  200dfa:	680b      	ldr	r3, [r1, #0]
  200dfc:	039d      	lsls	r5, r3, #14
  200dfe:	d5fc      	bpl.n	200dfa <__early_init+0x4a>
    ;                           /* Waits until LSI is stable.               */
#endif

#if STM32_ACTIVATE_PLL
  /* PLL activation.*/
  RCC->PLLCFGR = STM32_PLLQ | STM32_PLLSRC | STM32_PLLP | STM32_PLLN |
  200e00:	4b22      	ldr	r3, [pc, #136]	; (200e8c <__early_init+0xdc>)
                 STM32_PLLM;
  RCC->CR |= RCC_CR_PLLON;

  /* Synchronization with voltage regulator stabilization.*/
  while ((PWR->CSR1 & PWR_CSR1_VOSRDY) == 0)
  200e02:	4820      	ldr	r0, [pc, #128]	; (200e84 <__early_init+0xd4>)
  RCC->PLLCFGR = STM32_PLLQ | STM32_PLLSRC | STM32_PLLP | STM32_PLLN |
  200e04:	604b      	str	r3, [r1, #4]
  RCC->CR |= RCC_CR_PLLON;
  200e06:	680b      	ldr	r3, [r1, #0]
  200e08:	f043 7380 	orr.w	r3, r3, #16777216	; 0x1000000
  200e0c:	600b      	str	r3, [r1, #0]
  while ((PWR->CSR1 & PWR_CSR1_VOSRDY) == 0)
  200e0e:	6843      	ldr	r3, [r0, #4]
  200e10:	045c      	lsls	r4, r3, #17
  200e12:	d5fc      	bpl.n	200e0e <__early_init+0x5e>
    ;                           /* Waits until power regulator is stable.   */

#if STM32_OVERDRIVE_REQUIRED
  /* Overdrive activation performed after activating the PLL in order to save
     time as recommended in RM in "Entering Over-drive mode" paragraph.*/
  PWR->CR1 |= PWR_CR1_ODEN;
  200e14:	6803      	ldr	r3, [r0, #0]
  while (!(PWR->CSR1 & PWR_CSR1_ODRDY))
  200e16:	4a1b      	ldr	r2, [pc, #108]	; (200e84 <__early_init+0xd4>)
  PWR->CR1 |= PWR_CR1_ODEN;
  200e18:	f443 3380 	orr.w	r3, r3, #65536	; 0x10000
  200e1c:	6003      	str	r3, [r0, #0]
  while (!(PWR->CSR1 & PWR_CSR1_ODRDY))
  200e1e:	6853      	ldr	r3, [r2, #4]
  200e20:	03d9      	lsls	r1, r3, #15
  200e22:	d5fc      	bpl.n	200e1e <__early_init+0x6e>
      ;
  PWR->CR1 |= PWR_CR1_ODSWEN;
  200e24:	6813      	ldr	r3, [r2, #0]
  while (!(PWR->CSR1 & PWR_CSR1_ODSWRDY))
  200e26:	4917      	ldr	r1, [pc, #92]	; (200e84 <__early_init+0xd4>)
  PWR->CR1 |= PWR_CR1_ODSWEN;
  200e28:	f443 3300 	orr.w	r3, r3, #131072	; 0x20000
  200e2c:	6013      	str	r3, [r2, #0]
  while (!(PWR->CSR1 & PWR_CSR1_ODSWRDY))
  200e2e:	684b      	ldr	r3, [r1, #4]
  200e30:	039a      	lsls	r2, r3, #14
  200e32:	d5fc      	bpl.n	200e2e <__early_init+0x7e>
      ;
#endif /* STM32_OVERDRIVE_REQUIRED */

  /* Waiting for PLL lock.*/
  while (!(RCC->CR & RCC_CR_PLLRDY))
  200e34:	4a12      	ldr	r2, [pc, #72]	; (200e80 <__early_init+0xd0>)
  200e36:	6813      	ldr	r3, [r2, #0]
  200e38:	019b      	lsls	r3, r3, #6
  200e3a:	d5fc      	bpl.n	200e36 <__early_init+0x86>
                  STM32_UART7SEL  | STM32_USART6SEL | STM32_UART5SEL  |
                  STM32_UART4SEL  | STM32_USART3SEL | STM32_USART2SEL |
                  STM32_USART1SEL;

  /* Flash setup.*/
  FLASH->ACR = FLASH_ACR_ARTEN | FLASH_ACR_PRFTEN | STM32_FLASHBITS;
  200e3c:	4b14      	ldr	r3, [pc, #80]	; (200e90 <__early_init+0xe0>)
  200e3e:	f240 3109 	movw	r1, #777	; 0x309
  RCC->CFGR = STM32_MCO2SEL | STM32_MCO2PRE | STM32_MCO1PRE | STM32_I2SSRC |
  200e42:	4d14      	ldr	r5, [pc, #80]	; (200e94 <__early_init+0xe4>)
    RCC->DCKCFGR1 = dckcfgr1;
  200e44:	f240 2402 	movw	r4, #514	; 0x202
  RCC->DCKCFGR2 = STM32_SDMMCSEL  | STM32_CK48MSEL  | STM32_CECSEL    |
  200e48:	2000      	movs	r0, #0
  RCC->CFGR = STM32_MCO2SEL | STM32_MCO2PRE | STM32_MCO1PRE | STM32_I2SSRC |
  200e4a:	6095      	str	r5, [r2, #8]
    RCC->DCKCFGR1 = dckcfgr1;
  200e4c:	f8c2 408c 	str.w	r4, [r2, #140]	; 0x8c
  RCC->DCKCFGR2 = STM32_SDMMCSEL  | STM32_CK48MSEL  | STM32_CECSEL    |
  200e50:	f8c2 0090 	str.w	r0, [r2, #144]	; 0x90
  FLASH->ACR = FLASH_ACR_ARTEN | FLASH_ACR_PRFTEN | STM32_FLASHBITS;
  200e54:	6019      	str	r1, [r3, #0]

  /* Switching to the configured clock source if it is different from HSI.*/
#if (STM32_SW != STM32_SW_HSI)
  RCC->CFGR |= STM32_SW;        /* Switches on the selected clock source.   */
  200e56:	6893      	ldr	r3, [r2, #8]
  while ((RCC->CFGR & RCC_CFGR_SWS) != (STM32_SW << 2))
  200e58:	4909      	ldr	r1, [pc, #36]	; (200e80 <__early_init+0xd0>)
  RCC->CFGR |= STM32_SW;        /* Switches on the selected clock source.   */
  200e5a:	f043 0302 	orr.w	r3, r3, #2
  200e5e:	6093      	str	r3, [r2, #8]
  while ((RCC->CFGR & RCC_CFGR_SWS) != (STM32_SW << 2))
  200e60:	688b      	ldr	r3, [r1, #8]
  200e62:	f003 030c 	and.w	r3, r3, #12
  200e66:	2b08      	cmp	r3, #8
  200e68:	d1fa      	bne.n	200e60 <__early_init+0xb0>
#endif
#endif /* STM32_NO_INIT */

  /* SYSCFG clock enabled here because it is a multi-functional unit shared
     among multiple drivers.*/
  rccEnableAPB2(RCC_APB2ENR_SYSCFGEN, TRUE);
  200e6a:	6c4b      	ldr	r3, [r1, #68]	; 0x44
  200e6c:	f443 4380 	orr.w	r3, r3, #16384	; 0x4000
  200e70:	644b      	str	r3, [r1, #68]	; 0x44
  200e72:	6e4b      	ldr	r3, [r1, #100]	; 0x64
  200e74:	f443 4380 	orr.w	r3, r3, #16384	; 0x4000

  stm32_clock_init();
}
  200e78:	bc30      	pop	{r4, r5}
  200e7a:	664b      	str	r3, [r1, #100]	; 0x64
  200e7c:	4770      	bx	lr
  200e7e:	bf00      	nop
  200e80:	40023800 	.word	0x40023800
  200e84:	40007000 	.word	0x40007000
  200e88:	10000400 	.word	0x10000400
  200e8c:	09006c10 	.word	0x09006c10
  200e90:	40023c00 	.word	0x40023c00
  200e94:	30999400 	.word	0x30999400
	...

00200ea0 <_pal_lld_setgroupmode>:
 *
 * @notapi
 */
void _pal_lld_setgroupmode(ioportid_t port,
                           ioportmask_t mask,
                           iomode_t mode) {
  200ea0:	e92d 4ff0 	stmdb	sp!, {r4, r5, r6, r7, r8, r9, sl, fp, lr}

  uint32_t moder   = (mode & PAL_STM32_MODE_MASK) >> 0;
  200ea4:	f002 0903 	and.w	r9, r2, #3
  uint32_t otyper  = (mode & PAL_STM32_OTYPE_MASK) >> 2;
  200ea8:	f3c2 0880 	ubfx	r8, r2, #2, #1
  uint32_t ospeedr = (mode & PAL_STM32_OSPEED_MASK) >> 3;
  200eac:	f3c2 0cc1 	ubfx	ip, r2, #3, #2
  uint32_t pupdr   = (mode & PAL_STM32_PUPDR_MASK) >> 5;
  200eb0:	f3c2 1e41 	ubfx	lr, r2, #5, #2
  uint32_t altr    = (mode & PAL_STM32_ALTERNATE_MASK) >> 7;
  uint32_t bit     = 0;
  200eb4:	2600      	movs	r6, #0
  uint32_t moder   = (mode & PAL_STM32_MODE_MASK) >> 0;
  200eb6:	464f      	mov	r7, r9
  uint32_t altr    = (mode & PAL_STM32_ALTERNATE_MASK) >> 7;
  200eb8:	f3c2 12c3 	ubfx	r2, r2, #7, #4
      uint32_t altrmask, m1, m2, m4;

      altrmask = altr << ((bit & 7) * 4);
      m1 = 1 << bit;
      m2 = 3 << (bit * 2);
      m4 = 15 << ((bit & 7) * 4);
  200ebc:	f04f 0a0f 	mov.w	sl, #15
  200ec0:	e00e      	b.n	200ee0 <_pal_lld_setgroupmode+0x40>
      else {
        /* If going into a non-alternate mode then the mode is switched
           before setting the alternate mode in order to avoid glitches.*/
        port->MODER   = (port->MODER & ~m2) | moder;
        if (bit < 8)
          port->AFRL = (port->AFRL & ~m4) | altrmask;
  200ec2:	6a03      	ldr	r3, [r0, #32]
  200ec4:	ea23 0404 	bic.w	r4, r3, r4
  200ec8:	4325      	orrs	r5, r4
  200eca:	6205      	str	r5, [r0, #32]
        else
          port->AFRH = (port->AFRH & ~m4) | altrmask;
      }
    }
    mask >>= 1;
    if (!mask)
  200ecc:	0849      	lsrs	r1, r1, #1
  200ece:	d047      	beq.n	200f60 <_pal_lld_setgroupmode+0xc0>
      return;
    otyper <<= 1;
  200ed0:	ea4f 0848 	mov.w	r8, r8, lsl #1
    ospeedr <<= 2;
    pupdr <<= 2;
    moder <<= 2;
    bit++;
  200ed4:	3601      	adds	r6, #1
    ospeedr <<= 2;
  200ed6:	ea4f 0c8c 	mov.w	ip, ip, lsl #2
    pupdr <<= 2;
  200eda:	ea4f 0e8e 	mov.w	lr, lr, lsl #2
    moder <<= 2;
  200ede:	00bf      	lsls	r7, r7, #2
    if ((mask & 1) != 0) {
  200ee0:	07cb      	lsls	r3, r1, #31
  200ee2:	d5f3      	bpl.n	200ecc <_pal_lld_setgroupmode+0x2c>
      m1 = 1 << bit;
  200ee4:	2301      	movs	r3, #1
      port->OTYPER  = (port->OTYPER & ~m1) | otyper;
  200ee6:	6845      	ldr	r5, [r0, #4]
      altrmask = altr << ((bit & 7) * 4);
  200ee8:	f006 0407 	and.w	r4, r6, #7
      if ((mode & PAL_STM32_MODE_MASK) == PAL_STM32_MODE_ALTERNATE) {
  200eec:	f1b9 0f02 	cmp.w	r9, #2
      m1 = 1 << bit;
  200ef0:	fa03 fb06 	lsl.w	fp, r3, r6
      m2 = 3 << (bit * 2);
  200ef4:	fa06 f303 	lsl.w	r3, r6, r3
      altrmask = altr << ((bit & 7) * 4);
  200ef8:	ea4f 0484 	mov.w	r4, r4, lsl #2
      port->OTYPER  = (port->OTYPER & ~m1) | otyper;
  200efc:	ea25 0b0b 	bic.w	fp, r5, fp
      m2 = 3 << (bit * 2);
  200f00:	f04f 0503 	mov.w	r5, #3
      port->OTYPER  = (port->OTYPER & ~m1) | otyper;
  200f04:	ea4b 0b08 	orr.w	fp, fp, r8
      m2 = 3 << (bit * 2);
  200f08:	fa05 f303 	lsl.w	r3, r5, r3
      altrmask = altr << ((bit & 7) * 4);
  200f0c:	fa02 f504 	lsl.w	r5, r2, r4
      m4 = 15 << ((bit & 7) * 4);
  200f10:	fa0a f404 	lsl.w	r4, sl, r4
      port->OTYPER  = (port->OTYPER & ~m1) | otyper;
  200f14:	f8c0 b004 	str.w	fp, [r0, #4]
      port->OSPEEDR = (port->OSPEEDR & ~m2) | ospeedr;
  200f18:	ea6f 0303 	mvn.w	r3, r3
  200f1c:	f8d0 b008 	ldr.w	fp, [r0, #8]
  200f20:	ea0b 0b03 	and.w	fp, fp, r3
  200f24:	ea4b 0b0c 	orr.w	fp, fp, ip
  200f28:	f8c0 b008 	str.w	fp, [r0, #8]
      port->PUPDR   = (port->PUPDR & ~m2) | pupdr;
  200f2c:	f8d0 b00c 	ldr.w	fp, [r0, #12]
  200f30:	ea03 0b0b 	and.w	fp, r3, fp
  200f34:	ea4b 0b0e 	orr.w	fp, fp, lr
  200f38:	f8c0 b00c 	str.w	fp, [r0, #12]
      if ((mode & PAL_STM32_MODE_MASK) == PAL_STM32_MODE_ALTERNATE) {
  200f3c:	d012      	beq.n	200f64 <_pal_lld_setgroupmode+0xc4>
        port->MODER   = (port->MODER & ~m2) | moder;
  200f3e:	f8d0 b000 	ldr.w	fp, [r0]
        if (bit < 8)
  200f42:	2e07      	cmp	r6, #7
        port->MODER   = (port->MODER & ~m2) | moder;
  200f44:	ea03 030b 	and.w	r3, r3, fp
  200f48:	ea43 0307 	orr.w	r3, r3, r7
  200f4c:	6003      	str	r3, [r0, #0]
        if (bit < 8)
  200f4e:	d9b8      	bls.n	200ec2 <_pal_lld_setgroupmode+0x22>
          port->AFRH = (port->AFRH & ~m4) | altrmask;
  200f50:	6a43      	ldr	r3, [r0, #36]	; 0x24
    if (!mask)
  200f52:	0849      	lsrs	r1, r1, #1
          port->AFRH = (port->AFRH & ~m4) | altrmask;
  200f54:	ea23 0404 	bic.w	r4, r3, r4
  200f58:	ea45 0504 	orr.w	r5, r5, r4
  200f5c:	6245      	str	r5, [r0, #36]	; 0x24
    if (!mask)
  200f5e:	d1b7      	bne.n	200ed0 <_pal_lld_setgroupmode+0x30>
  200f60:	e8bd 8ff0 	ldmia.w	sp!, {r4, r5, r6, r7, r8, r9, sl, fp, pc}
        if (bit < 8)
  200f64:	2e07      	cmp	r6, #7
  200f66:	d80a      	bhi.n	200f7e <_pal_lld_setgroupmode+0xde>
          port->AFRL = (port->AFRL & ~m4) | altrmask;
  200f68:	f8d0 b020 	ldr.w	fp, [r0, #32]
  200f6c:	ea2b 0404 	bic.w	r4, fp, r4
  200f70:	4325      	orrs	r5, r4
  200f72:	6205      	str	r5, [r0, #32]
        port->MODER   = (port->MODER & ~m2) | moder;
  200f74:	6804      	ldr	r4, [r0, #0]
  200f76:	4023      	ands	r3, r4
  200f78:	433b      	orrs	r3, r7
  200f7a:	6003      	str	r3, [r0, #0]
  200f7c:	e7a6      	b.n	200ecc <_pal_lld_setgroupmode+0x2c>
          port->AFRH = (port->AFRH & ~m4) | altrmask;
  200f7e:	f8d0 b024 	ldr.w	fp, [r0, #36]	; 0x24
  200f82:	ea2b 0404 	bic.w	r4, fp, r4
  200f86:	4325      	orrs	r5, r4
  200f88:	6245      	str	r5, [r0, #36]	; 0x24
  200f8a:	e7f3      	b.n	200f74 <_pal_lld_setgroupmode+0xd4>
  200f8c:	0000      	movs	r0, r0
	...

00200f90 <chTMStopMeasurementX>:
 *
 * @return              The realtime counter value.
 */
static inline rtcnt_t port_rt_get_counter_value(void) {

  return DWT->CYCCNT;
  200f90:	4b0e      	ldr	r3, [pc, #56]	; (200fcc <chTMStopMeasurementX+0x3c>)
static inline void tm_stop(time_measurement_t *tmp,
                           rtcnt_t now,
                           rtcnt_t offset) {

  tmp->n++;
  tmp->last = (now - tmp->last) - offset;
  200f92:	6882      	ldr	r2, [r0, #8]
  200f94:	685b      	ldr	r3, [r3, #4]
 *
 * @xclass
 */
NOINLINE void chTMStopMeasurementX(time_measurement_t *tmp) {

  tm_stop(tmp, chSysGetRealtimeCounterX(), ch.tm.offset);
  200f96:	490e      	ldr	r1, [pc, #56]	; (200fd0 <chTMStopMeasurementX+0x40>)
  tmp->last = (now - tmp->last) - offset;
  200f98:	1a9b      	subs	r3, r3, r2
  if (tmp->last > tmp->worst) {
  200f9a:	6842      	ldr	r2, [r0, #4]
NOINLINE void chTMStopMeasurementX(time_measurement_t *tmp) {
  200f9c:	b430      	push	{r4, r5}
  tm_stop(tmp, chSysGetRealtimeCounterX(), ch.tm.offset);
  200f9e:	6f0c      	ldr	r4, [r1, #112]	; 0x70
  tmp->n++;
  200fa0:	68c1      	ldr	r1, [r0, #12]
  tmp->last = (now - tmp->last) - offset;
  200fa2:	1b1b      	subs	r3, r3, r4
  tmp->n++;
  200fa4:	3101      	adds	r1, #1
  tmp->last = (now - tmp->last) - offset;
  200fa6:	6083      	str	r3, [r0, #8]
  tmp->n++;
  200fa8:	60c1      	str	r1, [r0, #12]
  tmp->cumulative += (rttime_t)tmp->last;
  200faa:	e9d0 4504 	ldrd	r4, r5, [r0, #16]
  200fae:	18e4      	adds	r4, r4, r3
  200fb0:	f145 0500 	adc.w	r5, r5, #0
  if (tmp->last > tmp->worst) {
  200fb4:	4293      	cmp	r3, r2
  if (tmp->last < tmp->best) {
  200fb6:	6802      	ldr	r2, [r0, #0]
    tmp->worst = tmp->last;
  200fb8:	bf88      	it	hi
  200fba:	6043      	strhi	r3, [r0, #4]
  if (tmp->last < tmp->best) {
  200fbc:	4293      	cmp	r3, r2
  tmp->cumulative += (rttime_t)tmp->last;
  200fbe:	e9c0 4504 	strd	r4, r5, [r0, #16]
    tmp->best = tmp->last;
  200fc2:	bf38      	it	cc
  200fc4:	6003      	strcc	r3, [r0, #0]
}
  200fc6:	bc30      	pop	{r4, r5}
  200fc8:	4770      	bx	lr
  200fca:	bf00      	nop
  200fcc:	e0001000 	.word	0xe0001000
  200fd0:	20000c98 	.word	0x20000c98
	...

00200fe0 <chSchDoReschedule>:
 *          itself.
 *
 * @special
 */
void chSchDoRescheduleAhead(void) {
  thread_t *otp = currp;
  200fe0:	4a0e      	ldr	r2, [pc, #56]	; (20101c <chSchDoReschedule+0x3c>)

  /* Picks the first thread from the ready queue and makes it current.*/
  currp = queue_fifo_remove(&ch.rlist.queue);
  currp->state = CH_STATE_CURRENT;
  200fe2:	2101      	movs	r1, #1
  thread_t *tp = tqp->next;
  200fe4:	6810      	ldr	r0, [r2, #0]
void chSchDoRescheduleAhead(void) {
  200fe6:	b430      	push	{r4, r5}
  tqp->next             = tp->queue.next;
  200fe8:	6803      	ldr	r3, [r0, #0]
  tp->state = CH_STATE_READY;
  200fea:	2500      	movs	r5, #0
  thread_t *otp = currp;
  200fec:	6994      	ldr	r4, [r2, #24]
  200fee:	6013      	str	r3, [r2, #0]
  tqp->next->queue.prev = (thread_t *)tqp;
  200ff0:	605a      	str	r2, [r3, #4]
  currp->state = CH_STATE_CURRENT;
  200ff2:	f880 1020 	strb.w	r1, [r0, #32]
  tp->state = CH_STATE_READY;
  200ff6:	f884 5020 	strb.w	r5, [r4, #32]

  /* Handling idle-leave hook.*/
  if (otp->prio == IDLEPRIO) {
  200ffa:	68a1      	ldr	r1, [r4, #8]
  currp = queue_fifo_remove(&ch.rlist.queue);
  200ffc:	6190      	str	r0, [r2, #24]
  200ffe:	e000      	b.n	201002 <chSchDoReschedule+0x22>
  201000:	681b      	ldr	r3, [r3, #0]
  } while (cp->prio > tp->prio);
  201002:	689a      	ldr	r2, [r3, #8]
  201004:	4291      	cmp	r1, r2
  201006:	d3fb      	bcc.n	201000 <chSchDoReschedule+0x20>
  tp->queue.prev             = cp->queue.prev;
  201008:	685a      	ldr	r2, [r3, #4]

  /* Placing in ready list ahead of peers.*/
  otp = chSchReadyAheadI(otp);

  /* Swap operation as tail call.*/
  chSysSwitch(currp, otp);
  20100a:	4621      	mov	r1, r4
  tp->queue.next             = cp;
  20100c:	6023      	str	r3, [r4, #0]
  tp->queue.prev             = cp->queue.prev;
  20100e:	6062      	str	r2, [r4, #4]
  tp->queue.prev->queue.next = tp;
  201010:	6014      	str	r4, [r2, #0]
  cp->queue.prev             = tp;
  201012:	605c      	str	r4, [r3, #4]
}
  201014:	bc30      	pop	{r4, r5}
  chSysSwitch(currp, otp);
  201016:	f7ff b95d 	b.w	2002d4 <_port_switch>
  20101a:	bf00      	nop
  20101c:	20000c98 	.word	0x20000c98

00201020 <chSchRescheduleS>:
 */
static inline bool chSchIsRescRequiredI(void) {

  chDbgCheckClassI();

  return firstprio(&ch.rlist.queue) > currp->prio;
  201020:	4b04      	ldr	r3, [pc, #16]	; (201034 <chSchRescheduleS+0x14>)
  201022:	681a      	ldr	r2, [r3, #0]
  201024:	699b      	ldr	r3, [r3, #24]
  if (chSchIsRescRequiredI()) {
  201026:	6892      	ldr	r2, [r2, #8]
  201028:	689b      	ldr	r3, [r3, #8]
  20102a:	429a      	cmp	r2, r3
  20102c:	d800      	bhi.n	201030 <chSchRescheduleS+0x10>
  20102e:	4770      	bx	lr
    chSchDoRescheduleAhead();
  201030:	f7ff bfd6 	b.w	200fe0 <chSchDoReschedule>
  201034:	20000c98 	.word	0x20000c98
	...

00201040 <chSchGoSleepTimeoutS>:
  if (TIME_INFINITE != time) {
  201040:	f64f 73ff 	movw	r3, #65535	; 0xffff
  201044:	4299      	cmp	r1, r3
msg_t chSchGoSleepTimeoutS(tstate_t newstate, systime_t time) {
  201046:	b5f0      	push	{r4, r5, r6, r7, lr}
  201048:	b087      	sub	sp, #28
  if (TIME_INFINITE != time) {
  20104a:	d031      	beq.n	2010b0 <chSchGoSleepTimeoutS+0x70>
    chVTDoSetI(&vt, time, wakeup, currp);
  20104c:	4c1c      	ldr	r4, [pc, #112]	; (2010c0 <chSchGoSleepTimeoutS+0x80>)
  20104e:	4607      	mov	r7, r0

  chDbgCheckClassI();
  chDbgCheck((vtp != NULL) && (vtfunc != NULL) && (delay != TIME_IMMEDIATE));

  vtp->par = par;
  vtp->func = vtfunc;
  201050:	481c      	ldr	r0, [pc, #112]	; (2010c4 <chSchGoSleepTimeoutS+0x84>)
#else /* CH_CFG_ST_TIMEDELTA == 0 */
  /* Delta is initially equal to the specified delay.*/
  delta = delay;

  /* Pointer to the first element in the delta list.*/
  p = ch.vtlist.next;
  201052:	69e3      	ldr	r3, [r4, #28]
  vtp->par = par;
  201054:	69a5      	ldr	r5, [r4, #24]
#endif /* CH_CFG_ST_TIMEDELTA == 0 */

  /* The delta list is scanned in order to find the correct position for
     this timer. */
  while (p->delta < delta) {
  201056:	891a      	ldrh	r2, [r3, #8]
  vtp->par = par;
  201058:	9505      	str	r5, [sp, #20]
  while (p->delta < delta) {
  20105a:	4291      	cmp	r1, r2
  vtp->func = vtfunc;
  20105c:	9004      	str	r0, [sp, #16]
  while (p->delta < delta) {
  20105e:	d905      	bls.n	20106c <chSchGoSleepTimeoutS+0x2c>
    delta -= p->delta;
  201060:	1a89      	subs	r1, r1, r2
    p = p->next;
  201062:	681b      	ldr	r3, [r3, #0]
    delta -= p->delta;
  201064:	b289      	uxth	r1, r1
  while (p->delta < delta) {
  201066:	891a      	ldrh	r2, [r3, #8]
  201068:	428a      	cmp	r2, r1
  20106a:	d3f9      	bcc.n	201060 <chSchGoSleepTimeoutS+0x20>
  }

  /* The timer is inserted in the delta list.*/
  vtp->next = p;
  vtp->prev = vtp->next->prev;
  20106c:	685d      	ldr	r5, [r3, #4]
  vtp->prev->next = vtp;
  20106e:	aa01      	add	r2, sp, #4
  vtp->next = p;
  201070:	9301      	str	r3, [sp, #4]
  vtp->delta = delta

  /* Special case when the timer is in last position in the list, the
     value in the header must be restored.*/;
  p->delta -= delta;
  ch.vtlist.delta = (systime_t)-1;
  201072:	f64f 76ff 	movw	r6, #65535	; 0xffff
  vtp->prev = vtp->next->prev;
  201076:	9502      	str	r5, [sp, #8]
    chSchGoSleepS(newstate);
  201078:	4638      	mov	r0, r7
  vtp->prev->next = vtp;
  20107a:	602a      	str	r2, [r5, #0]
  p->prev = vtp;
  20107c:	605a      	str	r2, [r3, #4]
  vtp->delta = delta
  20107e:	f8ad 100c 	strh.w	r1, [sp, #12]
  p->delta -= delta;
  201082:	891a      	ldrh	r2, [r3, #8]
  201084:	1a51      	subs	r1, r2, r1
  201086:	8119      	strh	r1, [r3, #8]
  ch.vtlist.delta = (systime_t)-1;
  201088:	84a6      	strh	r6, [r4, #36]	; 0x24
  20108a:	f7ff fe79 	bl	200d80 <chSchGoSleepS>
    if (chVTIsArmedI(&vt)) {
  20108e:	9b04      	ldr	r3, [sp, #16]
  201090:	b153      	cbz	r3, 2010a8 <chSchGoSleepTimeoutS+0x68>
  chDbgAssert(vtp->func != NULL, "timer not set or already triggered");

#if CH_CFG_ST_TIMEDELTA == 0

  /* The delta of the timer is added to the next timer.*/
  vtp->next->delta += vtp->delta;
  201092:	9b01      	ldr	r3, [sp, #4]
  201094:	f8bd 000c 	ldrh.w	r0, [sp, #12]
  201098:	891a      	ldrh	r2, [r3, #8]

 /* Removing the element from the delta list.*/
  vtp->prev->next = vtp->next;
  20109a:	9902      	ldr	r1, [sp, #8]
  vtp->next->delta += vtp->delta;
  20109c:	4402      	add	r2, r0
  20109e:	811a      	strh	r2, [r3, #8]
  vtp->prev->next = vtp->next;
  2010a0:	600b      	str	r3, [r1, #0]
  vtp->next->prev = vtp->prev;
  2010a2:	9b01      	ldr	r3, [sp, #4]
  2010a4:	6059      	str	r1, [r3, #4]
  vtp->func = NULL;

  /* The above code changes the value in the header when the removed element
     is the last of the list, restoring it.*/
  ch.vtlist.delta = (systime_t)-1;
  2010a6:	84a6      	strh	r6, [r4, #36]	; 0x24
  return currp->u.rdymsg;
  2010a8:	69a3      	ldr	r3, [r4, #24]
}
  2010aa:	6a58      	ldr	r0, [r3, #36]	; 0x24
  2010ac:	b007      	add	sp, #28
  2010ae:	bdf0      	pop	{r4, r5, r6, r7, pc}
  2010b0:	4c03      	ldr	r4, [pc, #12]	; (2010c0 <chSchGoSleepTimeoutS+0x80>)
    chSchGoSleepS(newstate);
  2010b2:	f7ff fe65 	bl	200d80 <chSchGoSleepS>
  return currp->u.rdymsg;
  2010b6:	69a3      	ldr	r3, [r4, #24]
}
  2010b8:	6a58      	ldr	r0, [r3, #36]	; 0x24
  2010ba:	b007      	add	sp, #28
  2010bc:	bdf0      	pop	{r4, r5, r6, r7, pc}
  2010be:	bf00      	nop
  2010c0:	20000c98 	.word	0x20000c98
  2010c4:	00200b91 	.word	0x00200b91
	...

002010d0 <chThdEnqueueTimeoutS>:
 *
 * @sclass
 */
msg_t chThdEnqueueTimeoutS(threads_queue_t *tqp, systime_t timeout) {

  if (TIME_IMMEDIATE == timeout) {
  2010d0:	b161      	cbz	r1, 2010ec <chThdEnqueueTimeoutS+0x1c>
  2010d2:	4602      	mov	r2, r0
    return MSG_TIMEOUT;
  }

  queue_insert(currp, tqp);
  2010d4:	4b07      	ldr	r3, [pc, #28]	; (2010f4 <chThdEnqueueTimeoutS+0x24>)

  return chSchGoSleepTimeoutS(CH_STATE_QUEUED, timeout);
  2010d6:	2004      	movs	r0, #4
  queue_insert(currp, tqp);
  2010d8:	699b      	ldr	r3, [r3, #24]
msg_t chThdEnqueueTimeoutS(threads_queue_t *tqp, systime_t timeout) {
  2010da:	b410      	push	{r4}
  tp->queue.prev             = tqp->prev;
  2010dc:	6854      	ldr	r4, [r2, #4]
  2010de:	e883 0014 	stmia.w	r3, {r2, r4}
  tp->queue.prev->queue.next = tp;
  2010e2:	6023      	str	r3, [r4, #0]
  tqp->prev                  = tp;
  2010e4:	6053      	str	r3, [r2, #4]
}
  2010e6:	bc10      	pop	{r4}
  return chSchGoSleepTimeoutS(CH_STATE_QUEUED, timeout);
  2010e8:	f7ff bfaa 	b.w	201040 <chSchGoSleepTimeoutS>
}
  2010ec:	f04f 30ff 	mov.w	r0, #4294967295
  2010f0:	4770      	bx	lr
  2010f2:	bf00      	nop
  2010f4:	20000c98 	.word	0x20000c98
	...

00201100 <oqWriteTimeout>:
 * @return              The number of bytes effectively transferred.
 *
 * @api
 */
size_t oqWriteTimeout(output_queue_t *oqp, const uint8_t *bp,
                      size_t n, systime_t timeout) {
  201100:	e92d 4ff0 	stmdb	sp!, {r4, r5, r6, r7, r8, r9, sl, fp, lr}
  201104:	4699      	mov	r9, r3
  201106:	b083      	sub	sp, #12
  201108:	4604      	mov	r4, r0
  20110a:	460e      	mov	r6, r1
  20110c:	4615      	mov	r5, r2
  systime_t deadline;
  qnotify_t nfy = oqp->q_notify;
  20110e:	f8d0 801c 	ldr.w	r8, [r0, #28]
  201112:	2320      	movs	r3, #32
  201114:	f383 8811 	msr	BASEPRI, r3
  return ch.vtlist.systime;
  201118:	4b26      	ldr	r3, [pc, #152]	; (2011b4 <oqWriteTimeout+0xb4>)
    msg_t msg;

    while (oqIsFullI(oqp)) {
      /* TIME_INFINITE and TIME_IMMEDIATE are handled differently, no
         deadline.*/
      if ((timeout == TIME_INFINITE) || (timeout == TIME_IMMEDIATE)) {
  20111a:	f109 3aff 	add.w	sl, r9, #4294967295
  size_t w = 0;
  20111e:	2700      	movs	r7, #0
  201120:	8cdb      	ldrh	r3, [r3, #38]	; 0x26
      if ((timeout == TIME_INFINITE) || (timeout == TIME_IMMEDIATE)) {
  201122:	fa1f fa8a 	uxth.w	sl, sl
  deadline = osalOsGetSystemTimeX() + timeout;
  201126:	fa19 f383 	uxtah	r3, r9, r3
  20112a:	b29b      	uxth	r3, r3
  20112c:	9301      	str	r3, [sp, #4]
    while (oqIsFullI(oqp)) {
  20112e:	68a3      	ldr	r3, [r4, #8]
  201130:	b313      	cbz	r3, 201178 <oqWriteTimeout+0x78>
      }
    }

    /* Putting the character into the queue.*/
    oqp->q_counter--;
    *oqp->q_wrptr++ = *bp++;
  201132:	6961      	ldr	r1, [r4, #20]
  201134:	f106 0b01 	add.w	fp, r6, #1
    oqp->q_counter--;
  201138:	68a3      	ldr	r3, [r4, #8]
    *oqp->q_wrptr++ = *bp++;
  20113a:	1c48      	adds	r0, r1, #1
    oqp->q_counter--;
  20113c:	3b01      	subs	r3, #1
    *oqp->q_wrptr++ = *bp++;
  20113e:	6160      	str	r0, [r4, #20]
    oqp->q_counter--;
  201140:	60a3      	str	r3, [r4, #8]
    *oqp->q_wrptr++ = *bp++;
  201142:	7833      	ldrb	r3, [r6, #0]
  201144:	700b      	strb	r3, [r1, #0]
    if (oqp->q_wrptr >= oqp->q_top) {
  201146:	6961      	ldr	r1, [r4, #20]
  201148:	6923      	ldr	r3, [r4, #16]
  20114a:	4299      	cmp	r1, r3
  20114c:	d301      	bcc.n	201152 <oqWriteTimeout+0x52>
      oqp->q_wrptr = oqp->q_buffer;
  20114e:	68e3      	ldr	r3, [r4, #12]
  201150:	6163      	str	r3, [r4, #20]
    }

    /* Inform the low side that the queue has at least one character available.*/
    if (nfy != NULL) {
  201152:	f1b8 0f00 	cmp.w	r8, #0
  201156:	d001      	beq.n	20115c <oqWriteTimeout+0x5c>
      nfy(oqp);
  201158:	4620      	mov	r0, r4
  20115a:	47c0      	blx	r8
  20115c:	2300      	movs	r3, #0
  20115e:	f383 8811 	msr	BASEPRI, r3

    /* Giving a preemption chance in a controlled point.*/
    osalSysUnlock();

    w++;
    if (--n == 0U) {
  201162:	3d01      	subs	r5, #1
    w++;
  201164:	f107 0701 	add.w	r7, r7, #1
    if (--n == 0U) {
  201168:	d019      	beq.n	20119e <oqWriteTimeout+0x9e>
  20116a:	2320      	movs	r3, #32
  20116c:	f383 8811 	msr	BASEPRI, r3
    while (oqIsFullI(oqp)) {
  201170:	68a3      	ldr	r3, [r4, #8]
    *oqp->q_wrptr++ = *bp++;
  201172:	465e      	mov	r6, fp
    while (oqIsFullI(oqp)) {
  201174:	2b00      	cmp	r3, #0
  201176:	d1dc      	bne.n	201132 <oqWriteTimeout+0x32>
      if ((timeout == TIME_INFINITE) || (timeout == TIME_IMMEDIATE)) {
  201178:	f64f 72fd 	movw	r2, #65533	; 0xfffd
  20117c:	4592      	cmp	sl, r2
  20117e:	d812      	bhi.n	2011a6 <oqWriteTimeout+0xa6>
  201180:	4a0c      	ldr	r2, [pc, #48]	; (2011b4 <oqWriteTimeout+0xb4>)
  201182:	8cd1      	ldrh	r1, [r2, #38]	; 0x26
        systime_t next_timeout = deadline - osalOsGetSystemTimeX();
  201184:	9a01      	ldr	r2, [sp, #4]
  201186:	1a51      	subs	r1, r2, r1
  201188:	b289      	uxth	r1, r1
        if (next_timeout > timeout) {
  20118a:	4589      	cmp	r9, r1
  20118c:	d305      	bcc.n	20119a <oqWriteTimeout+0x9a>
  return chThdEnqueueTimeoutS(tqp, time);
  20118e:	4620      	mov	r0, r4
  201190:	f7ff ff9e 	bl	2010d0 <chThdEnqueueTimeoutS>
      if (msg != MSG_OK) {
  201194:	2800      	cmp	r0, #0
  201196:	d0ca      	beq.n	20112e <oqWriteTimeout+0x2e>
  201198:	2300      	movs	r3, #0
  20119a:	f383 8811 	msr	BASEPRI, r3
      return w;
    }

    osalSysLock();
  }
}
  20119e:	4638      	mov	r0, r7
  2011a0:	b003      	add	sp, #12
  2011a2:	e8bd 8ff0 	ldmia.w	sp!, {r4, r5, r6, r7, r8, r9, sl, fp, pc}
  2011a6:	4649      	mov	r1, r9
  2011a8:	4620      	mov	r0, r4
  2011aa:	f7ff ff91 	bl	2010d0 <chThdEnqueueTimeoutS>
      if (msg != MSG_OK) {
  2011ae:	2800      	cmp	r0, #0
  2011b0:	d0bd      	beq.n	20112e <oqWriteTimeout+0x2e>
  2011b2:	e7f1      	b.n	201198 <oqWriteTimeout+0x98>
  2011b4:	20000c98 	.word	0x20000c98
	...

002011c0 <_writet.lto_priv.52>:
  return oqWriteTimeout(&((SerialDriver *)ip)->oqueue, bp, n, timeout);
  2011c0:	3030      	adds	r0, #48	; 0x30
  2011c2:	f7ff bf9d 	b.w	201100 <oqWriteTimeout>
  2011c6:	bf00      	nop
	...

002011d0 <_write.lto_priv.46>:
  return oqWriteTimeout(&((SerialDriver *)ip)->oqueue, bp,
  2011d0:	3030      	adds	r0, #48	; 0x30
  2011d2:	f64f 73ff 	movw	r3, #65535	; 0xffff
  2011d6:	f7ff bf93 	b.w	201100 <oqWriteTimeout>
  2011da:	bf00      	nop
  2011dc:	0000      	movs	r0, r0
	...

002011e0 <oqPutTimeout>:
msg_t oqPutTimeout(output_queue_t *oqp, uint8_t b, systime_t timeout) {
  2011e0:	b5f8      	push	{r3, r4, r5, r6, r7, lr}
  2011e2:	4604      	mov	r4, r0
  2011e4:	460f      	mov	r7, r1
  2011e6:	4616      	mov	r6, r2
  2011e8:	2320      	movs	r3, #32
  2011ea:	f383 8811 	msr	BASEPRI, r3
  2011ee:	e003      	b.n	2011f8 <oqPutTimeout+0x18>
  2011f0:	f7ff ff6e 	bl	2010d0 <chThdEnqueueTimeoutS>
    if (msg < MSG_OK) {
  2011f4:	2800      	cmp	r0, #0
  2011f6:	db19      	blt.n	20122c <oqPutTimeout+0x4c>
  while (oqIsFullI(oqp)) {
  2011f8:	68a5      	ldr	r5, [r4, #8]
  2011fa:	4631      	mov	r1, r6
  2011fc:	4620      	mov	r0, r4
  2011fe:	2d00      	cmp	r5, #0
  201200:	d0f6      	beq.n	2011f0 <oqPutTimeout+0x10>
  *oqp->q_wrptr++ = b;
  201202:	6962      	ldr	r2, [r4, #20]
  oqp->q_counter--;
  201204:	68a3      	ldr	r3, [r4, #8]
  *oqp->q_wrptr++ = b;
  201206:	1c51      	adds	r1, r2, #1
  oqp->q_counter--;
  201208:	3b01      	subs	r3, #1
  *oqp->q_wrptr++ = b;
  20120a:	6161      	str	r1, [r4, #20]
  oqp->q_counter--;
  20120c:	60a3      	str	r3, [r4, #8]
  *oqp->q_wrptr++ = b;
  20120e:	7017      	strb	r7, [r2, #0]
  if (oqp->q_wrptr >= oqp->q_top) {
  201210:	6962      	ldr	r2, [r4, #20]
  201212:	6923      	ldr	r3, [r4, #16]
  201214:	429a      	cmp	r2, r3
  201216:	d301      	bcc.n	20121c <oqPutTimeout+0x3c>
    oqp->q_wrptr = oqp->q_buffer;
  201218:	68e3      	ldr	r3, [r4, #12]
  20121a:	6163      	str	r3, [r4, #20]
  if (oqp->q_notify != NULL) {
  20121c:	69e3      	ldr	r3, [r4, #28]
  20121e:	b10b      	cbz	r3, 201224 <oqPutTimeout+0x44>
    oqp->q_notify(oqp);
  201220:	4620      	mov	r0, r4
  201222:	4798      	blx	r3
  201224:	2000      	movs	r0, #0
  201226:	f380 8811 	msr	BASEPRI, r0
}
  20122a:	bdf8      	pop	{r3, r4, r5, r6, r7, pc}
  20122c:	f385 8811 	msr	BASEPRI, r5
  201230:	bdf8      	pop	{r3, r4, r5, r6, r7, pc}
  201232:	bf00      	nop
	...

00201240 <_putt.lto_priv.50>:
  return oqPutTimeout(&((SerialDriver *)ip)->oqueue, b, timeout);
  201240:	3030      	adds	r0, #48	; 0x30
  201242:	f7ff bfcd 	b.w	2011e0 <oqPutTimeout>
  201246:	bf00      	nop
	...

00201250 <_put.lto_priv.48>:
  return oqPutTimeout(&((SerialDriver *)ip)->oqueue, b, TIME_INFINITE);
  201250:	3030      	adds	r0, #48	; 0x30
  201252:	f64f 72ff 	movw	r2, #65535	; 0xffff
  201256:	f7ff bfc3 	b.w	2011e0 <oqPutTimeout>
  20125a:	bf00      	nop
  20125c:	0000      	movs	r0, r0
	...

00201260 <iqReadTimeout>:
                     size_t n, systime_t timeout) {
  201260:	e92d 4ff0 	stmdb	sp!, {r4, r5, r6, r7, r8, r9, sl, fp, lr}
  201264:	4699      	mov	r9, r3
  201266:	b083      	sub	sp, #12
  201268:	4604      	mov	r4, r0
  20126a:	460e      	mov	r6, r1
  20126c:	4615      	mov	r5, r2
  qnotify_t nfy = iqp->q_notify;
  20126e:	f8d0 801c 	ldr.w	r8, [r0, #28]
  201272:	2320      	movs	r3, #32
  201274:	f383 8811 	msr	BASEPRI, r3
  201278:	4b26      	ldr	r3, [pc, #152]	; (201314 <iqReadTimeout+0xb4>)
      if ((timeout == TIME_INFINITE) || (timeout == TIME_IMMEDIATE)) {
  20127a:	f109 3aff 	add.w	sl, r9, #4294967295
  size_t r = 0;
  20127e:	2700      	movs	r7, #0
  201280:	8cdb      	ldrh	r3, [r3, #38]	; 0x26
      if ((timeout == TIME_INFINITE) || (timeout == TIME_IMMEDIATE)) {
  201282:	fa1f fa8a 	uxth.w	sl, sl
  deadline = osalOsGetSystemTimeX() + timeout;
  201286:	fa19 f383 	uxtah	r3, r9, r3
  20128a:	b29b      	uxth	r3, r3
  20128c:	9301      	str	r3, [sp, #4]
    while (iqIsEmptyI(iqp)) {
  20128e:	68a3      	ldr	r3, [r4, #8]
  201290:	b313      	cbz	r3, 2012d8 <iqReadTimeout+0x78>
    *bp++ = *iqp->q_rdptr++;
  201292:	69a1      	ldr	r1, [r4, #24]
  201294:	f106 0b01 	add.w	fp, r6, #1
    iqp->q_counter--;
  201298:	68a3      	ldr	r3, [r4, #8]
    *bp++ = *iqp->q_rdptr++;
  20129a:	1c48      	adds	r0, r1, #1
    iqp->q_counter--;
  20129c:	3b01      	subs	r3, #1
    *bp++ = *iqp->q_rdptr++;
  20129e:	61a0      	str	r0, [r4, #24]
    iqp->q_counter--;
  2012a0:	60a3      	str	r3, [r4, #8]
    *bp++ = *iqp->q_rdptr++;
  2012a2:	780b      	ldrb	r3, [r1, #0]
  2012a4:	7033      	strb	r3, [r6, #0]
    if (iqp->q_rdptr >= iqp->q_top) {
  2012a6:	69a1      	ldr	r1, [r4, #24]
  2012a8:	6923      	ldr	r3, [r4, #16]
  2012aa:	4299      	cmp	r1, r3
  2012ac:	d301      	bcc.n	2012b2 <iqReadTimeout+0x52>
      iqp->q_rdptr = iqp->q_buffer;
  2012ae:	68e3      	ldr	r3, [r4, #12]
  2012b0:	61a3      	str	r3, [r4, #24]
    if (nfy != NULL) {
  2012b2:	f1b8 0f00 	cmp.w	r8, #0
  2012b6:	d001      	beq.n	2012bc <iqReadTimeout+0x5c>
      nfy(iqp);
  2012b8:	4620      	mov	r0, r4
  2012ba:	47c0      	blx	r8
  2012bc:	2300      	movs	r3, #0
  2012be:	f383 8811 	msr	BASEPRI, r3
    if (--n == 0U) {
  2012c2:	3d01      	subs	r5, #1
    r++;
  2012c4:	f107 0701 	add.w	r7, r7, #1
    if (--n == 0U) {
  2012c8:	d019      	beq.n	2012fe <iqReadTimeout+0x9e>
  2012ca:	2320      	movs	r3, #32
  2012cc:	f383 8811 	msr	BASEPRI, r3
    while (iqIsEmptyI(iqp)) {
  2012d0:	68a3      	ldr	r3, [r4, #8]
    *bp++ = *iqp->q_rdptr++;
  2012d2:	465e      	mov	r6, fp
    while (iqIsEmptyI(iqp)) {
  2012d4:	2b00      	cmp	r3, #0
  2012d6:	d1dc      	bne.n	201292 <iqReadTimeout+0x32>
      if ((timeout == TIME_INFINITE) || (timeout == TIME_IMMEDIATE)) {
  2012d8:	f64f 72fd 	movw	r2, #65533	; 0xfffd
  2012dc:	4592      	cmp	sl, r2
  2012de:	d812      	bhi.n	201306 <iqReadTimeout+0xa6>
  2012e0:	4a0c      	ldr	r2, [pc, #48]	; (201314 <iqReadTimeout+0xb4>)
  2012e2:	8cd1      	ldrh	r1, [r2, #38]	; 0x26
        systime_t next_timeout = deadline - osalOsGetSystemTimeX();
  2012e4:	9a01      	ldr	r2, [sp, #4]
  2012e6:	1a51      	subs	r1, r2, r1
  2012e8:	b289      	uxth	r1, r1
        if (next_timeout > timeout) {
  2012ea:	4589      	cmp	r9, r1
  2012ec:	d305      	bcc.n	2012fa <iqReadTimeout+0x9a>
  2012ee:	4620      	mov	r0, r4
  2012f0:	f7ff feee 	bl	2010d0 <chThdEnqueueTimeoutS>
      if (msg != MSG_OK) {
  2012f4:	2800      	cmp	r0, #0
  2012f6:	d0ca      	beq.n	20128e <iqReadTimeout+0x2e>
  2012f8:	2300      	movs	r3, #0
  2012fa:	f383 8811 	msr	BASEPRI, r3
}
  2012fe:	4638      	mov	r0, r7
  201300:	b003      	add	sp, #12
  201302:	e8bd 8ff0 	ldmia.w	sp!, {r4, r5, r6, r7, r8, r9, sl, fp, pc}
  201306:	4649      	mov	r1, r9
  201308:	4620      	mov	r0, r4
  20130a:	f7ff fee1 	bl	2010d0 <chThdEnqueueTimeoutS>
      if (msg != MSG_OK) {
  20130e:	2800      	cmp	r0, #0
  201310:	d0bd      	beq.n	20128e <iqReadTimeout+0x2e>
  201312:	e7f1      	b.n	2012f8 <iqReadTimeout+0x98>
  201314:	20000c98 	.word	0x20000c98
	...

00201320 <_readt.lto_priv.53>:
  return iqReadTimeout(&((SerialDriver *)ip)->iqueue, bp, n, timeout);
  201320:	300c      	adds	r0, #12
  201322:	f7ff bf9d 	b.w	201260 <iqReadTimeout>
  201326:	bf00      	nop
	...

00201330 <_read.lto_priv.47>:
  return iqReadTimeout(&((SerialDriver *)ip)->iqueue, bp,
  201330:	300c      	adds	r0, #12
  201332:	f64f 73ff 	movw	r3, #65535	; 0xffff
  201336:	f7ff bf93 	b.w	201260 <iqReadTimeout>
  20133a:	bf00      	nop
  20133c:	0000      	movs	r0, r0
	...

00201340 <iqGetTimeout>:
msg_t iqGetTimeout(input_queue_t *iqp, systime_t timeout) {
  201340:	b570      	push	{r4, r5, r6, lr}
  201342:	2320      	movs	r3, #32
  201344:	4604      	mov	r4, r0
  201346:	460e      	mov	r6, r1
  201348:	f383 8811 	msr	BASEPRI, r3
  20134c:	e003      	b.n	201356 <iqGetTimeout+0x16>
  20134e:	f7ff febf 	bl	2010d0 <chThdEnqueueTimeoutS>
    if (msg < MSG_OK) {
  201352:	2800      	cmp	r0, #0
  201354:	db19      	blt.n	20138a <iqGetTimeout+0x4a>
  while (iqIsEmptyI(iqp)) {
  201356:	68a5      	ldr	r5, [r4, #8]
  201358:	4631      	mov	r1, r6
  20135a:	4620      	mov	r0, r4
  20135c:	2d00      	cmp	r5, #0
  20135e:	d0f6      	beq.n	20134e <iqGetTimeout+0xe>
  b = *iqp->q_rdptr++;
  201360:	69a1      	ldr	r1, [r4, #24]
  iqp->q_counter--;
  201362:	68a3      	ldr	r3, [r4, #8]
  b = *iqp->q_rdptr++;
  201364:	1c4a      	adds	r2, r1, #1
  if (iqp->q_rdptr >= iqp->q_top) {
  201366:	6920      	ldr	r0, [r4, #16]
  iqp->q_counter--;
  201368:	3b01      	subs	r3, #1
  if (iqp->q_rdptr >= iqp->q_top) {
  20136a:	4282      	cmp	r2, r0
  b = *iqp->q_rdptr++;
  20136c:	61a2      	str	r2, [r4, #24]
  iqp->q_counter--;
  20136e:	60a3      	str	r3, [r4, #8]
  b = *iqp->q_rdptr++;
  201370:	780d      	ldrb	r5, [r1, #0]
  if (iqp->q_rdptr >= iqp->q_top) {
  201372:	d301      	bcc.n	201378 <iqGetTimeout+0x38>
    iqp->q_rdptr = iqp->q_buffer;
  201374:	68e3      	ldr	r3, [r4, #12]
  201376:	61a3      	str	r3, [r4, #24]
  if (iqp->q_notify != NULL) {
  201378:	69e3      	ldr	r3, [r4, #28]
  20137a:	b10b      	cbz	r3, 201380 <iqGetTimeout+0x40>
    iqp->q_notify(iqp);
  20137c:	4620      	mov	r0, r4
  20137e:	4798      	blx	r3
  201380:	2300      	movs	r3, #0
  201382:	f383 8811 	msr	BASEPRI, r3
  return (msg_t)b;
  201386:	4628      	mov	r0, r5
}
  201388:	bd70      	pop	{r4, r5, r6, pc}
  20138a:	f385 8811 	msr	BASEPRI, r5
  20138e:	bd70      	pop	{r4, r5, r6, pc}

00201390 <_gett.lto_priv.51>:
  return iqGetTimeout(&((SerialDriver *)ip)->iqueue, timeout);
  201390:	300c      	adds	r0, #12
  201392:	f7ff bfd5 	b.w	201340 <iqGetTimeout>
  201396:	bf00      	nop
	...

002013a0 <_get.lto_priv.49>:
  return iqGetTimeout(&((SerialDriver *)ip)->iqueue, TIME_INFINITE);
  2013a0:	300c      	adds	r0, #12
  2013a2:	f64f 71ff 	movw	r1, #65535	; 0xffff
  2013a6:	f7ff bfcb 	b.w	201340 <iqGetTimeout>
  2013aa:	bf00      	nop
  2013ac:	0000      	movs	r0, r0
	...

002013b0 <chSchReadyI>:
thread_t *chSchReadyI(thread_t *tp) {
  2013b0:	b410      	push	{r4}
  tp->state = CH_STATE_READY;
  2013b2:	2200      	movs	r2, #0
thread_t *chSchReadyI(thread_t *tp) {
  2013b4:	4604      	mov	r4, r0
  cp = (thread_t *)&ch.rlist.queue;
  2013b6:	4b08      	ldr	r3, [pc, #32]	; (2013d8 <chSchReadyI+0x28>)
  2013b8:	6881      	ldr	r1, [r0, #8]
  tp->state = CH_STATE_READY;
  2013ba:	f880 2020 	strb.w	r2, [r0, #32]
    cp = cp->queue.next;
  2013be:	681b      	ldr	r3, [r3, #0]
  } while (cp->prio >= tp->prio);
  2013c0:	689a      	ldr	r2, [r3, #8]
  2013c2:	428a      	cmp	r2, r1
  2013c4:	d2fb      	bcs.n	2013be <chSchReadyI+0xe>
  tp->queue.prev             = cp->queue.prev;
  2013c6:	685a      	ldr	r2, [r3, #4]
}
  2013c8:	4620      	mov	r0, r4
  tp->queue.next             = cp;
  2013ca:	6023      	str	r3, [r4, #0]
  tp->queue.prev             = cp->queue.prev;
  2013cc:	6062      	str	r2, [r4, #4]
  tp->queue.prev->queue.next = tp;
  2013ce:	6014      	str	r4, [r2, #0]
  cp->queue.prev             = tp;
  2013d0:	605c      	str	r4, [r3, #4]
}
  2013d2:	bc10      	pop	{r4}
  2013d4:	4770      	bx	lr
  2013d6:	bf00      	nop
  2013d8:	20000c98 	.word	0x20000c98
  2013dc:	00000000 	.word	0x00000000

002013e0 <Vector88>:
/**
 * @brief   ADC interrupt handler.
 *
 * @isr
 */
OSAL_IRQ_HANDLER(STM32_ADC_HANDLER) {
  2013e0:	b5f8      	push	{r3, r4, r5, r6, r7, lr}
  uint32_t sr;

  OSAL_IRQ_PROLOGUE();

#if STM32_ADC_USE_ADC1
  sr = ADC1->SR;
  2013e2:	4b23      	ldr	r3, [pc, #140]	; (201470 <Vector88+0x90>)
  ADC1->SR = 0;
  2013e4:	2100      	movs	r1, #0
  sr = ADC1->SR;
  2013e6:	681a      	ldr	r2, [r3, #0]
  ADC1->SR = 0;
  2013e8:	6019      	str	r1, [r3, #0]
  /* Note, an overflow may occur after the conversion ended before the driver
     is able to stop the ADC, this is why the DMA channel is checked too.*/
  if ((sr & ADC_SR_OVR) && (dmaStreamGetTransactionSize(ADCD1.dmastp) > 0)) {
  2013ea:	0693      	lsls	r3, r2, #26
  2013ec:	d535      	bpl.n	20145a <Vector88+0x7a>
  2013ee:	4c21      	ldr	r4, [pc, #132]	; (201474 <Vector88+0x94>)
  2013f0:	6ae0      	ldr	r0, [r4, #44]	; 0x2c
  2013f2:	6802      	ldr	r2, [r0, #0]
  2013f4:	6853      	ldr	r3, [r2, #4]
  2013f6:	2b00      	cmp	r3, #0
  2013f8:	d02f      	beq.n	20145a <Vector88+0x7a>
    /* ADC overflow condition, this could happen only if the DMA is unable
       to read data fast enough.*/
    if (ADCD1.grpp != NULL)
  2013fa:	6921      	ldr	r1, [r4, #16]
  2013fc:	b369      	cbz	r1, 20145a <Vector88+0x7a>
 *
 * @notapi
 */
void adc_lld_stop_conversion(ADCDriver *adcp) {

  dmaStreamDisable(adcp->dmastp);
  2013fe:	6813      	ldr	r3, [r2, #0]
  201400:	f023 031f 	bic.w	r3, r3, #31
  201404:	6013      	str	r3, [r2, #0]
  201406:	6813      	ldr	r3, [r2, #0]
  201408:	f013 0301 	ands.w	r3, r3, #1
  20140c:	d1fb      	bne.n	201406 <Vector88+0x26>
  20140e:	7a07      	ldrb	r7, [r0, #8]
  201410:	223d      	movs	r2, #61	; 0x3d
      _adc_isr_error_code(&ADCD1, ADC_ERR_OVERFLOW);
  201412:	688d      	ldr	r5, [r1, #8]
  adcp->adc->CR1 = 0;
  adcp->adc->CR2 = 0;
  adcp->adc->CR2 = ADC_CR2_ADON;
  201414:	2101      	movs	r1, #1
  dmaStreamDisable(adcp->dmastp);
  201416:	6846      	ldr	r6, [r0, #4]
  201418:	fa02 f707 	lsl.w	r7, r2, r7
  adcp->adc->CR1 = 0;
  20141c:	6aa2      	ldr	r2, [r4, #40]	; 0x28
  dmaStreamDisable(adcp->dmastp);
  20141e:	6037      	str	r7, [r6, #0]
  adcp->adc->CR1 = 0;
  201420:	6053      	str	r3, [r2, #4]
  adcp->adc->CR2 = 0;
  201422:	6093      	str	r3, [r2, #8]
  adcp->adc->CR2 = ADC_CR2_ADON;
  201424:	6091      	str	r1, [r2, #8]
      _adc_isr_error_code(&ADCD1, ADC_ERR_OVERFLOW);
  201426:	b1fd      	cbz	r5, 201468 <Vector88+0x88>
  201428:	2305      	movs	r3, #5
  20142a:	4812      	ldr	r0, [pc, #72]	; (201474 <Vector88+0x94>)
  20142c:	7023      	strb	r3, [r4, #0]
  20142e:	47a8      	blx	r5
  201430:	7823      	ldrb	r3, [r4, #0]
  201432:	2b05      	cmp	r3, #5
  201434:	d015      	beq.n	201462 <Vector88+0x82>
  201436:	2300      	movs	r3, #0
  201438:	6123      	str	r3, [r4, #16]
  20143a:	2320      	movs	r3, #32
  20143c:	f383 8811 	msr	BASEPRI, r3
  if (*trp != NULL) {
  201440:	6963      	ldr	r3, [r4, #20]
  201442:	b13b      	cbz	r3, 201454 <Vector88+0x74>
    tp->u.rdymsg = msg;
  201444:	f04f 31ff 	mov.w	r1, #4294967295
    *trp = NULL;
  201448:	2200      	movs	r2, #0
    (void) chSchReadyI(tp);
  20144a:	4618      	mov	r0, r3
    tp->u.rdymsg = msg;
  20144c:	6259      	str	r1, [r3, #36]	; 0x24
    *trp = NULL;
  20144e:	6162      	str	r2, [r4, #20]
    (void) chSchReadyI(tp);
  201450:	f7ff ffae 	bl	2013b0 <chSchReadyI>
  201454:	2300      	movs	r3, #0
  201456:	f383 8811 	msr	BASEPRI, r3
}
  20145a:	e8bd 40f8 	ldmia.w	sp!, {r3, r4, r5, r6, r7, lr}
  OSAL_IRQ_EPILOGUE();
  20145e:	f7fe bf9f 	b.w	2003a0 <_port_irq_epilogue>
      _adc_isr_error_code(&ADCD1, ADC_ERR_OVERFLOW);
  201462:	2302      	movs	r3, #2
  201464:	7023      	strb	r3, [r4, #0]
  201466:	e7e6      	b.n	201436 <Vector88+0x56>
  201468:	2302      	movs	r3, #2
  20146a:	6125      	str	r5, [r4, #16]
  20146c:	7023      	strb	r3, [r4, #0]
  20146e:	e7e4      	b.n	20143a <Vector88+0x5a>
  201470:	40012000 	.word	0x40012000
  201474:	20000800 	.word	0x20000800
	...

00201480 <adc_lld_serve_rx_interrupt.lto_priv.44>:
  if ((flags & (STM32_DMA_ISR_TEIF | STM32_DMA_ISR_DMEIF)) != 0) {
  201480:	f011 0f0c 	tst.w	r1, #12
static void adc_lld_serve_rx_interrupt(ADCDriver *adcp, uint32_t flags) {
  201484:	b570      	push	{r4, r5, r6, lr}
  201486:	4604      	mov	r4, r0
  if ((flags & (STM32_DMA_ISR_TEIF | STM32_DMA_ISR_DMEIF)) != 0) {
  201488:	d031      	beq.n	2014ee <adc_lld_serve_rx_interrupt.lto_priv.44+0x6e>
  dmaStreamDisable(adcp->dmastp);
  20148a:	6ac0      	ldr	r0, [r0, #44]	; 0x2c
  20148c:	6803      	ldr	r3, [r0, #0]
  20148e:	681a      	ldr	r2, [r3, #0]
  201490:	f022 021f 	bic.w	r2, r2, #31
  201494:	601a      	str	r2, [r3, #0]
  201496:	6819      	ldr	r1, [r3, #0]
  201498:	f011 0101 	ands.w	r1, r1, #1
  20149c:	d1fb      	bne.n	201496 <adc_lld_serve_rx_interrupt.lto_priv.44+0x16>
  20149e:	7a03      	ldrb	r3, [r0, #8]
  2014a0:	223d      	movs	r2, #61	; 0x3d
    _adc_isr_error_code(adcp, ADC_ERR_DMAFAILURE);
  2014a2:	6925      	ldr	r5, [r4, #16]
  adcp->adc->CR2 = ADC_CR2_ADON;
  2014a4:	2601      	movs	r6, #1
  dmaStreamDisable(adcp->dmastp);
  2014a6:	6840      	ldr	r0, [r0, #4]
  2014a8:	409a      	lsls	r2, r3
    _adc_isr_error_code(adcp, ADC_ERR_DMAFAILURE);
  2014aa:	68ad      	ldr	r5, [r5, #8]
  adcp->adc->CR1 = 0;
  2014ac:	6aa3      	ldr	r3, [r4, #40]	; 0x28
  dmaStreamDisable(adcp->dmastp);
  2014ae:	6002      	str	r2, [r0, #0]
  adcp->adc->CR1 = 0;
  2014b0:	6059      	str	r1, [r3, #4]
  adcp->adc->CR2 = 0;
  2014b2:	6099      	str	r1, [r3, #8]
  adcp->adc->CR2 = ADC_CR2_ADON;
  2014b4:	609e      	str	r6, [r3, #8]
    _adc_isr_error_code(adcp, ADC_ERR_DMAFAILURE);
  2014b6:	2d00      	cmp	r5, #0
  2014b8:	d030      	beq.n	20151c <adc_lld_serve_rx_interrupt.lto_priv.44+0x9c>
  2014ba:	2305      	movs	r3, #5
  2014bc:	4620      	mov	r0, r4
  2014be:	7023      	strb	r3, [r4, #0]
  2014c0:	47a8      	blx	r5
  2014c2:	7823      	ldrb	r3, [r4, #0]
  2014c4:	2b05      	cmp	r3, #5
  2014c6:	d067      	beq.n	201598 <adc_lld_serve_rx_interrupt.lto_priv.44+0x118>
  2014c8:	2300      	movs	r3, #0
  2014ca:	6123      	str	r3, [r4, #16]
  2014cc:	2320      	movs	r3, #32
  2014ce:	f383 8811 	msr	BASEPRI, r3
  if (*trp != NULL) {
  2014d2:	6963      	ldr	r3, [r4, #20]
  2014d4:	b13b      	cbz	r3, 2014e6 <adc_lld_serve_rx_interrupt.lto_priv.44+0x66>
    *trp = NULL;
  2014d6:	2100      	movs	r1, #0
    tp->u.rdymsg = msg;
  2014d8:	f04f 32ff 	mov.w	r2, #4294967295
    (void) chSchReadyI(tp);
  2014dc:	4618      	mov	r0, r3
    *trp = NULL;
  2014de:	6161      	str	r1, [r4, #20]
    tp->u.rdymsg = msg;
  2014e0:	625a      	str	r2, [r3, #36]	; 0x24
    (void) chSchReadyI(tp);
  2014e2:	f7ff ff65 	bl	2013b0 <chSchReadyI>
  2014e6:	2300      	movs	r3, #0
  2014e8:	f383 8811 	msr	BASEPRI, r3
  2014ec:	bd70      	pop	{r4, r5, r6, pc}
    if (adcp->grpp != NULL) {
  2014ee:	6905      	ldr	r5, [r0, #16]
  2014f0:	b19d      	cbz	r5, 20151a <adc_lld_serve_rx_interrupt.lto_priv.44+0x9a>
      if ((flags & STM32_DMA_ISR_TCIF) != 0) {
  2014f2:	068a      	lsls	r2, r1, #26
  2014f4:	d50f      	bpl.n	201516 <adc_lld_serve_rx_interrupt.lto_priv.44+0x96>
        _adc_isr_full_code(adcp);
  2014f6:	782b      	ldrb	r3, [r5, #0]
  2014f8:	b1eb      	cbz	r3, 201536 <adc_lld_serve_rx_interrupt.lto_priv.44+0xb6>
  2014fa:	686b      	ldr	r3, [r5, #4]
  2014fc:	b16b      	cbz	r3, 20151a <adc_lld_serve_rx_interrupt.lto_priv.44+0x9a>
  2014fe:	68c2      	ldr	r2, [r0, #12]
  201500:	2a01      	cmp	r2, #1
  201502:	d94c      	bls.n	20159e <adc_lld_serve_rx_interrupt.lto_priv.44+0x11e>
  201504:	0852      	lsrs	r2, r2, #1
  201506:	886d      	ldrh	r5, [r5, #2]
  201508:	6884      	ldr	r4, [r0, #8]
  20150a:	0051      	lsls	r1, r2, #1
  20150c:	fb05 4101 	mla	r1, r5, r1, r4
}
  201510:	e8bd 4070 	ldmia.w	sp!, {r4, r5, r6, lr}
        _adc_isr_full_code(adcp);
  201514:	4718      	bx	r3
      else if ((flags & STM32_DMA_ISR_HTIF) != 0) {
  201516:	06cb      	lsls	r3, r1, #27
  201518:	d404      	bmi.n	201524 <adc_lld_serve_rx_interrupt.lto_priv.44+0xa4>
  20151a:	bd70      	pop	{r4, r5, r6, pc}
    _adc_isr_error_code(adcp, ADC_ERR_DMAFAILURE);
  20151c:	2302      	movs	r3, #2
  20151e:	6125      	str	r5, [r4, #16]
  201520:	7023      	strb	r3, [r4, #0]
  201522:	e7d3      	b.n	2014cc <adc_lld_serve_rx_interrupt.lto_priv.44+0x4c>
        _adc_isr_half_code(adcp);
  201524:	686b      	ldr	r3, [r5, #4]
  201526:	2b00      	cmp	r3, #0
  201528:	d0f7      	beq.n	20151a <adc_lld_serve_rx_interrupt.lto_priv.44+0x9a>
  20152a:	68c2      	ldr	r2, [r0, #12]
  20152c:	6881      	ldr	r1, [r0, #8]
  20152e:	0852      	lsrs	r2, r2, #1
}
  201530:	e8bd 4070 	ldmia.w	sp!, {r4, r5, r6, lr}
        _adc_isr_half_code(adcp);
  201534:	4718      	bx	r3
  dmaStreamDisable(adcp->dmastp);
  201536:	6ac0      	ldr	r0, [r0, #44]	; 0x2c
  201538:	6802      	ldr	r2, [r0, #0]
  20153a:	6813      	ldr	r3, [r2, #0]
  20153c:	f023 031f 	bic.w	r3, r3, #31
  201540:	6013      	str	r3, [r2, #0]
  201542:	6813      	ldr	r3, [r2, #0]
  201544:	f013 0301 	ands.w	r3, r3, #1
  201548:	d1fb      	bne.n	201542 <adc_lld_serve_rx_interrupt.lto_priv.44+0xc2>
  20154a:	7a02      	ldrb	r2, [r0, #8]
  20154c:	213d      	movs	r1, #61	; 0x3d
        _adc_isr_full_code(adcp);
  20154e:	686d      	ldr	r5, [r5, #4]
  adcp->adc->CR2 = ADC_CR2_ADON;
  201550:	2601      	movs	r6, #1
  dmaStreamDisable(adcp->dmastp);
  201552:	6840      	ldr	r0, [r0, #4]
  201554:	4091      	lsls	r1, r2
  adcp->adc->CR1 = 0;
  201556:	6aa2      	ldr	r2, [r4, #40]	; 0x28
  dmaStreamDisable(adcp->dmastp);
  201558:	6001      	str	r1, [r0, #0]
  adcp->adc->CR1 = 0;
  20155a:	6053      	str	r3, [r2, #4]
  adcp->adc->CR2 = 0;
  20155c:	6093      	str	r3, [r2, #8]
  adcp->adc->CR2 = ADC_CR2_ADON;
  20155e:	6096      	str	r6, [r2, #8]
        _adc_isr_full_code(adcp);
  201560:	b1ad      	cbz	r5, 20158e <adc_lld_serve_rx_interrupt.lto_priv.44+0x10e>
  201562:	2304      	movs	r3, #4
  201564:	68e2      	ldr	r2, [r4, #12]
  201566:	68a1      	ldr	r1, [r4, #8]
  201568:	4620      	mov	r0, r4
  20156a:	7023      	strb	r3, [r4, #0]
  20156c:	47a8      	blx	r5
  20156e:	7823      	ldrb	r3, [r4, #0]
  201570:	2b04      	cmp	r3, #4
  201572:	d00c      	beq.n	20158e <adc_lld_serve_rx_interrupt.lto_priv.44+0x10e>
  201574:	2320      	movs	r3, #32
  201576:	f383 8811 	msr	BASEPRI, r3
  if (*trp != NULL) {
  20157a:	6963      	ldr	r3, [r4, #20]
  20157c:	2b00      	cmp	r3, #0
  20157e:	d0b2      	beq.n	2014e6 <adc_lld_serve_rx_interrupt.lto_priv.44+0x66>
    *trp = NULL;
  201580:	2200      	movs	r2, #0
    (void) chSchReadyI(tp);
  201582:	4618      	mov	r0, r3
    *trp = NULL;
  201584:	6162      	str	r2, [r4, #20]
    tp->u.rdymsg = msg;
  201586:	625a      	str	r2, [r3, #36]	; 0x24
    (void) chSchReadyI(tp);
  201588:	f7ff ff12 	bl	2013b0 <chSchReadyI>
  20158c:	e7ab      	b.n	2014e6 <adc_lld_serve_rx_interrupt.lto_priv.44+0x66>
  20158e:	2202      	movs	r2, #2
  201590:	2300      	movs	r3, #0
  201592:	7022      	strb	r2, [r4, #0]
  201594:	6123      	str	r3, [r4, #16]
  201596:	e7ed      	b.n	201574 <adc_lld_serve_rx_interrupt.lto_priv.44+0xf4>
    _adc_isr_error_code(adcp, ADC_ERR_DMAFAILURE);
  201598:	2302      	movs	r3, #2
  20159a:	7023      	strb	r3, [r4, #0]
  20159c:	e794      	b.n	2014c8 <adc_lld_serve_rx_interrupt.lto_priv.44+0x48>
        _adc_isr_full_code(adcp);
  20159e:	6881      	ldr	r1, [r0, #8]
}
  2015a0:	e8bd 4070 	ldmia.w	sp!, {r4, r5, r6, lr}
        _adc_isr_full_code(adcp);
  2015a4:	4718      	bx	r3
  2015a6:	bf00      	nop
	...

002015b0 <chThdExit>:
void chThdExit(msg_t msg) {
  2015b0:	b538      	push	{r3, r4, r5, lr}
  2015b2:	2220      	movs	r2, #32
  2015b4:	4603      	mov	r3, r0
  2015b6:	f382 8811 	msr	BASEPRI, r2
  thread_t *tp = currp;
  2015ba:	4a10      	ldr	r2, [pc, #64]	; (2015fc <chThdExit+0x4c>)
  2015bc:	6994      	ldr	r4, [r2, #24]
  while (list_notempty(&tp->waiting)) {
  2015be:	f104 0528 	add.w	r5, r4, #40	; 0x28
  return (bool)(tlp->next != (thread_t *)tlp);
  2015c2:	6aa0      	ldr	r0, [r4, #40]	; 0x28
  tp->u.exitcode = msg;
  2015c4:	6263      	str	r3, [r4, #36]	; 0x24
  while (list_notempty(&tp->waiting)) {
  2015c6:	4285      	cmp	r5, r0
  2015c8:	d006      	beq.n	2015d8 <chThdExit+0x28>
  tlp->next = tp->queue.next;
  2015ca:	6803      	ldr	r3, [r0, #0]
  2015cc:	62a3      	str	r3, [r4, #40]	; 0x28
    (void) chSchReadyI(list_remove(&tp->waiting));
  2015ce:	f7ff feef 	bl	2013b0 <chSchReadyI>
  return (bool)(tlp->next != (thread_t *)tlp);
  2015d2:	6aa0      	ldr	r0, [r4, #40]	; 0x28
  while (list_notempty(&tp->waiting)) {
  2015d4:	42a8      	cmp	r0, r5
  2015d6:	d1f8      	bne.n	2015ca <chThdExit+0x1a>
  if ((tp->refs == (trefs_t)0) &&
  2015d8:	f894 3022 	ldrb.w	r3, [r4, #34]	; 0x22
  2015dc:	b943      	cbnz	r3, 2015f0 <chThdExit+0x40>
  2015de:	f894 3021 	ldrb.w	r3, [r4, #33]	; 0x21
  2015e2:	079b      	lsls	r3, r3, #30
  2015e4:	d104      	bne.n	2015f0 <chThdExit+0x40>
    REG_REMOVE(tp);
  2015e6:	6922      	ldr	r2, [r4, #16]
  2015e8:	6963      	ldr	r3, [r4, #20]
  2015ea:	611a      	str	r2, [r3, #16]
  2015ec:	6922      	ldr	r2, [r4, #16]
  2015ee:	6153      	str	r3, [r2, #20]
  chSchGoSleepS(CH_STATE_FINAL);
  2015f0:	200f      	movs	r0, #15
}
  2015f2:	e8bd 4038 	ldmia.w	sp!, {r3, r4, r5, lr}
  chSchGoSleepS(CH_STATE_FINAL);
  2015f6:	f7ff bbc3 	b.w	200d80 <chSchGoSleepS>
  2015fa:	bf00      	nop
  2015fc:	20000c98 	.word	0x20000c98

00201600 <__init_ram_areas>:
}

/**
 * @brief   Performs the initialization of the various RAM areas.
 */
void __init_ram_areas(void) {
  201600:	b5f0      	push	{r4, r5, r6, r7, lr}
#if CRT1_AREAS_NUMBER > 0
  const ram_init_area_t *rap = ram_areas;
  201602:	4f12      	ldr	r7, [pc, #72]	; (20164c <__init_ram_areas+0x4c>)
      tp++;
    }

    /* Zeroing clear area.*/
    while (p < rap->no_init_area) {
      *p = 0;
  201604:	2600      	movs	r6, #0
void __init_ram_areas(void) {
  201606:	4d12      	ldr	r5, [pc, #72]	; (201650 <__init_ram_areas+0x50>)
  201608:	f107 0e80 	add.w	lr, r7, #128	; 0x80
  20160c:	4c11      	ldr	r4, [pc, #68]	; (201654 <__init_ram_areas+0x54>)
  20160e:	4b12      	ldr	r3, [pc, #72]	; (201658 <__init_ram_areas+0x58>)
  201610:	4912      	ldr	r1, [pc, #72]	; (20165c <__init_ram_areas+0x5c>)
    while (p < rap->clear_area) {
  201612:	429c      	cmp	r4, r3
  201614:	d911      	bls.n	20163a <__init_ram_areas+0x3a>
  201616:	3904      	subs	r1, #4
  201618:	461a      	mov	r2, r3
      *p = *tp;
  20161a:	f851 0f04 	ldr.w	r0, [r1, #4]!
  20161e:	f842 0b04 	str.w	r0, [r2], #4
    while (p < rap->clear_area) {
  201622:	4294      	cmp	r4, r2
  201624:	d8f9      	bhi.n	20161a <__init_ram_areas+0x1a>
  201626:	43da      	mvns	r2, r3
  201628:	4414      	add	r4, r2
  20162a:	f024 0403 	bic.w	r4, r4, #3
  20162e:	3404      	adds	r4, #4
  201630:	4423      	add	r3, r4
    while (p < rap->no_init_area) {
  201632:	429d      	cmp	r5, r3
  201634:	d903      	bls.n	20163e <__init_ram_areas+0x3e>
      *p = 0;
  201636:	f843 6b04 	str.w	r6, [r3], #4
    while (p < rap->no_init_area) {
  20163a:	429d      	cmp	r5, r3
  20163c:	d8fb      	bhi.n	201636 <__init_ram_areas+0x36>
      p++;
    }
    rap++;
  20163e:	3710      	adds	r7, #16
  }
  while (rap < &ram_areas[CRT1_AREAS_NUMBER]);
  201640:	4577      	cmp	r7, lr
  201642:	d202      	bcs.n	20164a <__init_ram_areas+0x4a>
  201644:	e897 003a 	ldmia.w	r7, {r1, r3, r4, r5}
  201648:	e7e3      	b.n	201612 <__init_ram_areas+0x12>
  20164a:	bdf0      	pop	{r4, r5, r6, r7, pc}
  20164c:	08002730 	.word	0x08002730
  201650:	20020000 	.word	0x20020000
  201654:	20020000 	.word	0x20020000
  201658:	20020000 	.word	0x20020000
  20165c:	0800290c 	.word	0x0800290c

00201660 <__default_exit>:
void __default_exit(void) {
  201660:	e7fe      	b.n	201660 <__default_exit>
  201662:	bf00      	nop
	...

00201670 <__late_init>:
void __late_init(void) {}
  201670:	4770      	bx	lr
  201672:	bf00      	nop
	...

00201680 <__core_init>:
void __core_init(void) {
  201680:	b5f0      	push	{r4, r5, r6, r7, lr}
  \details Acts as a special kind of Data Memory Barrier.
           It completes when all explicit memory accesses before this instruction complete.
 */
__attribute__((always_inline)) __STATIC_INLINE void __DSB(void)
{
  __ASM volatile ("dsb 0xF":::"memory");
  201682:	f3bf 8f4f 	dsb	sy
  __ASM volatile ("isb 0xF":::"memory");
  201686:	f3bf 8f6f 	isb	sy
__STATIC_INLINE void SCB_EnableICache (void)
{
  #if (__ICACHE_PRESENT == 1U)
    __DSB();
    __ISB();
    SCB->ICIALLU = 0UL;                     /* invalidate I-Cache */
  20168a:	4c1b      	ldr	r4, [pc, #108]	; (2016f8 <__core_init+0x78>)
  20168c:	2200      	movs	r2, #0
  20168e:	f8c4 2250 	str.w	r2, [r4, #592]	; 0x250
    SCB->CCR |=  (uint32_t)SCB_CCR_IC_Msk;  /* enable I-Cache */
  201692:	6963      	ldr	r3, [r4, #20]
  201694:	f443 3300 	orr.w	r3, r3, #131072	; 0x20000
  201698:	6163      	str	r3, [r4, #20]
  __ASM volatile ("dsb 0xF":::"memory");
  20169a:	f3bf 8f4f 	dsb	sy
  __ASM volatile ("isb 0xF":::"memory");
  20169e:	f3bf 8f6f 	isb	sy
  #if (__DCACHE_PRESENT == 1U)
    uint32_t ccsidr;
    uint32_t sets;
    uint32_t ways;

    SCB->CSSELR = (0U << 1U) | 0U;          /* Level 1 data cache */
  2016a2:	f8c4 2084 	str.w	r2, [r4, #132]	; 0x84
  __ASM volatile ("dsb 0xF":::"memory");
  2016a6:	f3bf 8f4f 	dsb	sy
    __DSB();

    ccsidr = SCB->CCSIDR;
  2016aa:	f8d4 3080 	ldr.w	r3, [r4, #128]	; 0x80
  2016ae:	f643 7ee0 	movw	lr, #16352	; 0x3fe0
  2016b2:	f3c3 06c9 	ubfx	r6, r3, #3, #10

                                            /* invalidate D-Cache */
    sets = (uint32_t)(CCSIDR_SETS(ccsidr));
  2016b6:	f3c3 334e 	ubfx	r3, r3, #13, #15
  2016ba:	07b7      	lsls	r7, r6, #30
  2016bc:	015d      	lsls	r5, r3, #5
  2016be:	ea05 000e 	and.w	r0, r5, lr
  2016c2:	4639      	mov	r1, r7
    do {
      ways = (uint32_t)(CCSIDR_WAYS(ccsidr));
  2016c4:	4632      	mov	r2, r6
      do {
        SCB->DCISW = (((sets << SCB_DCISW_SET_Pos) & SCB_DCISW_SET_Msk) |
  2016c6:	ea41 0300 	orr.w	r3, r1, r0
                      ((ways << SCB_DCISW_WAY_Pos) & SCB_DCISW_WAY_Msk)  );
        #if defined ( __CC_ARM )
          __schedule_barrier();
        #endif
      } while (ways--);
  2016ca:	3a01      	subs	r2, #1
        SCB->DCISW = (((sets << SCB_DCISW_SET_Pos) & SCB_DCISW_SET_Msk) |
  2016cc:	f101 4140 	add.w	r1, r1, #3221225472	; 0xc0000000
  2016d0:	f8c4 3260 	str.w	r3, [r4, #608]	; 0x260
      } while (ways--);
  2016d4:	1c53      	adds	r3, r2, #1
  2016d6:	d1f6      	bne.n	2016c6 <__core_init+0x46>
  2016d8:	3d20      	subs	r5, #32
    } while(sets--);
  2016da:	f115 0f20 	cmn.w	r5, #32
  2016de:	d1ee      	bne.n	2016be <__core_init+0x3e>
  2016e0:	f3bf 8f4f 	dsb	sy
    __DSB();

    SCB->CCR |=  (uint32_t)SCB_CCR_DC_Msk;  /* enable D-Cache */
  2016e4:	6963      	ldr	r3, [r4, #20]
  2016e6:	f443 3380 	orr.w	r3, r3, #65536	; 0x10000
  2016ea:	6163      	str	r3, [r4, #20]
  2016ec:	f3bf 8f4f 	dsb	sy
  __ASM volatile ("isb 0xF":::"memory");
  2016f0:	f3bf 8f6f 	isb	sy
  2016f4:	bdf0      	pop	{r4, r5, r6, r7, pc}
  2016f6:	bf00      	nop
  2016f8:	e000ed00 	.word	0xe000ed00
  2016fc:	00000000 	.word	0x00000000

00201700 <adcerrorcallback>:
}

/*
 * ADC errors callback, should never happen.
 */
static void adcerrorcallback(ADCDriver *adcp, adcerror_t err) {
  201700:	4770      	bx	lr
  201702:	bf00      	nop
	...

00201710 <Blinker>:
static THD_FUNCTION(Blinker, arg) {

  (void)arg;
  while (true)
  {
    palToggleLine(LINE_LED1);
  201710:	4c08      	ldr	r4, [pc, #32]	; (201734 <Blinker+0x24>)
  __ASM volatile ("MSR basepri, %0" : : "r" (value) : "memory");
  201712:	2520      	movs	r5, #32
static THD_FUNCTION(Blinker, arg) {
  201714:	b508      	push	{r3, lr}
    palToggleLine(LINE_LED1);
  201716:	6963      	ldr	r3, [r4, #20]
  201718:	f083 0301 	eor.w	r3, r3, #1
  20171c:	6163      	str	r3, [r4, #20]
  20171e:	f385 8811 	msr	BASEPRI, r5
 */
static inline void chThdSleepS(systime_t time) {

  chDbgCheck(time != TIME_IMMEDIATE);

  (void) chSchGoSleepTimeoutS(CH_STATE_SLEEPING, time);
  201722:	f44f 717a 	mov.w	r1, #1000	; 0x3e8
  201726:	2008      	movs	r0, #8
  201728:	f7ff fc8a 	bl	201040 <chSchGoSleepTimeoutS>
  20172c:	2300      	movs	r3, #0
  20172e:	f383 8811 	msr	BASEPRI, r3
  201732:	e7f0      	b.n	201716 <Blinker+0x6>
  201734:	40020400 	.word	0x40020400
	...

00201740 <adccallback>:
{
  201740:	b510      	push	{r4, lr}
  201742:	2320      	movs	r3, #32
  201744:	f383 8811 	msr	BASEPRI, r3
  chMBPostI( &test_mb, samples1[0]);
  201748:	4c05      	ldr	r4, [pc, #20]	; (201760 <adccallback+0x20>)
  20174a:	8820      	ldrh	r0, [r4, #0]
  20174c:	f000 fdb8 	bl	2022c0 <chMBPostI.constprop.31>
  chMBPostI( &test_mb, samples1[1]);
  201750:	8860      	ldrh	r0, [r4, #2]
  201752:	f000 fdb5 	bl	2022c0 <chMBPostI.constprop.31>
  201756:	2300      	movs	r3, #0
  201758:	f383 8811 	msr	BASEPRI, r3
  20175c:	bd10      	pop	{r4, pc}
  20175e:	bf00      	nop
  201760:	20000acc 	.word	0x20000acc
	...

00201770 <main>:
  tqp->next = (thread_t *)tqp;
  201770:	4c7c      	ldr	r4, [pc, #496]	; (201964 <main+0x1f4>)
  ch.rlist.prio = NOPRIO;
  201772:	2600      	movs	r6, #0
  ch.vtlist.delta = (systime_t)-1;
  201774:	f64f 72ff 	movw	r2, #65535	; 0xffff
  tmp->cumulative = (rttime_t)0;
  201778:	f04f 0800 	mov.w	r8, #0
  ch.vtlist.next = (virtual_timer_t *)&ch.vtlist;
  20177c:	f104 031c 	add.w	r3, r4, #28
  201780:	f04f 0900 	mov.w	r9, #0
  reg_value &= ~((uint32_t)(SCB_AIRCR_VECTKEY_Msk | SCB_AIRCR_PRIGROUP_Msk)); /* clear bits to change               */
  201784:	f64f 0aff 	movw	sl, #63743	; 0xf8ff
    chThdSleepSeconds(1);
  }
}

int main(void)
{
  201788:	e92d 4880 	stmdb	sp!, {r7, fp, lr}
  20178c:	b089      	sub	sp, #36	; 0x24
  tmp->best       = (rtcnt_t)-1;
  20178e:	f04f 37ff 	mov.w	r7, #4294967295
  201792:	6024      	str	r4, [r4, #0]
  chTMStartMeasurementX(&tm);
  201794:	a802      	add	r0, sp, #8
  tqp->prev = (thread_t *)tqp;
  201796:	6064      	str	r4, [r4, #4]
  ch.vtlist.delta = (systime_t)-1;
  201798:	84a2      	strh	r2, [r4, #36]	; 0x24
  ch.vtlist.next = (virtual_timer_t *)&ch.vtlist;
  20179a:	61e3      	str	r3, [r4, #28]
  ch.vtlist.prev = (virtual_timer_t *)&ch.vtlist;
  20179c:	6223      	str	r3, [r4, #32]
  ch.rlist.newer = (thread_t *)&ch.rlist;
  20179e:	6124      	str	r4, [r4, #16]
  ch.rlist.older = (thread_t *)&ch.rlist;
  2017a0:	6164      	str	r4, [r4, #20]
  ch.rlist.prio = NOPRIO;
  2017a2:	60a6      	str	r6, [r4, #8]
  ch.vtlist.systime = (systime_t)0;
  2017a4:	84e6      	strh	r6, [r4, #38]	; 0x26
  ch.tm.offset = (rtcnt_t)0;
  2017a6:	6726      	str	r6, [r4, #112]	; 0x70
  tmp->worst      = (rtcnt_t)0;
  2017a8:	9603      	str	r6, [sp, #12]
  tmp->last       = (rtcnt_t)0;
  2017aa:	9604      	str	r6, [sp, #16]
  tmp->n          = (ucnt_t)0;
  2017ac:	9605      	str	r6, [sp, #20]
  tmp->best       = (rtcnt_t)-1;
  2017ae:	9702      	str	r7, [sp, #8]
  tmp->cumulative = (rttime_t)0;
  2017b0:	e9cd 8906 	strd	r8, r9, [sp, #24]
  chTMStartMeasurementX(&tm);
  2017b4:	f000 fd34 	bl	202220 <chTMStartMeasurementX.constprop.38>
  chTMStopMeasurementX(&tm);
  2017b8:	a802      	add	r0, sp, #8
  2017ba:	f7ff fbe9 	bl	200f90 <chTMStopMeasurementX>
 *
 * @notapi
 */
void _heap_init(void) {

  default_heap.provider = chCoreAllocAligned;
  2017be:	4b6a      	ldr	r3, [pc, #424]	; (201968 <main+0x1f8>)
  2017c0:	496a      	ldr	r1, [pc, #424]	; (20196c <main+0x1fc>)
  REG_INSERT(tp);
  2017c2:	f104 0e2c 	add.w	lr, r4, #44	; 0x2c
  nextmem = __heap_base__;
  2017c6:	4a6a      	ldr	r2, [pc, #424]	; (201970 <main+0x200>)
  tqp->next = (thread_t *)tqp;
  2017c8:	f103 0910 	add.w	r9, r3, #16
  2017cc:	6019      	str	r1, [r3, #0]
  tp->prio      = prio;
  2017ce:	f04f 0880 	mov.w	r8, #128	; 0x80
  2017d2:	4968      	ldr	r1, [pc, #416]	; (201974 <main+0x204>)
  ch.tm.offset = tm.last;
  2017d4:	9804      	ldr	r0, [sp, #16]
  2017d6:	6011      	str	r1, [r2, #0]
  endmem  = __heap_end__;
  2017d8:	4a67      	ldr	r2, [pc, #412]	; (201978 <main+0x208>)
  2017da:	4968      	ldr	r1, [pc, #416]	; (20197c <main+0x20c>)
  tp->flags     = CH_FLAG_MODE_STATIC;
  2017dc:	f884 604d 	strb.w	r6, [r4, #77]	; 0x4d
  2017e0:	6011      	str	r1, [r2, #0]
  tp->refs      = (trefs_t)1;
  2017e2:	2201      	movs	r2, #1
  reg_value  =  SCB->AIRCR;                                                   /* read old register configuration    */
  2017e4:	4966      	ldr	r1, [pc, #408]	; (201980 <main+0x210>)
  tp->mtxlist   = NULL;
  2017e6:	6666      	str	r6, [r4, #100]	; 0x64
  2017e8:	f8d1 c00c 	ldr.w	ip, [r1, #12]
  2017ec:	6720      	str	r0, [r4, #112]	; 0x70
  tp->name      = name;
  2017ee:	4865      	ldr	r0, [pc, #404]	; (201984 <main+0x214>)
  reg_value &= ~((uint32_t)(SCB_AIRCR_VECTKEY_Msk | SCB_AIRCR_PRIGROUP_Msk)); /* clear bits to change               */
  2017f0:	ea0c 0c0a 	and.w	ip, ip, sl
  tp->prio      = prio;
  2017f4:	f8c4 8034 	str.w	r8, [r4, #52]	; 0x34
  tp->name      = name;
  2017f8:	6460      	str	r0, [r4, #68]	; 0x44
  reg_value  =  (reg_value                                   |
  2017fa:	4863      	ldr	r0, [pc, #396]	; (201988 <main+0x218>)
  tp->realprio  = prio;
  2017fc:	f8c4 8068 	str.w	r8, [r4, #104]	; 0x68
  tlp->next = (thread_t *)tlp;
  201800:	f104 0854 	add.w	r8, r4, #84	; 0x54
  201804:	ea4c 0000 	orr.w	r0, ip, r0
  REG_INSERT(tp);
  201808:	f8d4 c014 	ldr.w	ip, [r4, #20]
  tp->epending  = (eventmask_t)0;
  20180c:	6626      	str	r6, [r4, #96]	; 0x60
void chMtxObjectInit(mutex_t *mp) {

  chDbgCheck(mp != NULL);

  queue_init(&mp->queue);
  mp->owner = NULL;
  20180e:	619e      	str	r6, [r3, #24]
  tqp->next = (thread_t *)tqp;
  201810:	f8c3 9010 	str.w	r9, [r3, #16]
  tqp->prev = (thread_t *)tqp;
  201814:	f8c3 9014 	str.w	r9, [r3, #20]
  tp->refs      = (trefs_t)1;
  201818:	f884 204e 	strb.w	r2, [r4, #78]	; 0x4e
  REG_INSERT(tp);
  20181c:	f8c4 c040 	str.w	ip, [r4, #64]	; 0x40
  201820:	63e4      	str	r4, [r4, #60]	; 0x3c
  201822:	f8cc e010 	str.w	lr, [ip, #16]
  CoreDebug->DEMCR |= CoreDebug_DEMCR_TRCENA_Msk;
  201826:	f8df c188 	ldr.w	ip, [pc, #392]	; 2019b0 <main+0x240>
  SCB->AIRCR =  reg_value;
  20182a:	60c8      	str	r0, [r1, #12]
  tqp->next = (thread_t *)tqp;
  20182c:	f104 0058 	add.w	r0, r4, #88	; 0x58
  H_NEXT(&default_heap.header) = NULL;
  201830:	609e      	str	r6, [r3, #8]
  H_PAGES(&default_heap.header) = 0;
  201832:	60de      	str	r6, [r3, #12]
  201834:	f8dc 300c 	ldr.w	r3, [ip, #12]
  201838:	f8c4 e014 	str.w	lr, [r4, #20]
  20183c:	f043 7380 	orr.w	r3, r3, #16777216	; 0x1000000
#endif

#if CH_CFG_NO_IDLE_THREAD == FALSE
  /* Now this instructions flow becomes the main thread.*/
#if CH_CFG_USE_REGISTRY == TRUE
  currp = _thread_init(&ch.mainthread, (const char *)&ch_debug, NORMALPRIO);
  201840:	f8c4 e018 	str.w	lr, [r4, #24]
       symbol must be provided externally.*/
    extern stkalign_t __main_thread_stack_base__;
    currp->wabase = &__main_thread_stack_base__;
  }
#elif CH_CFG_USE_DYNAMIC == TRUE
  currp->wabase = NULL;
  201844:	64a6      	str	r6, [r4, #72]	; 0x48
#endif

  /* Setting up the caller as current thread.*/
  currp->state = CH_STATE_CURRENT;
  201846:	f884 204c 	strb.w	r2, [r4, #76]	; 0x4c
  tlp->next = (thread_t *)tlp;
  20184a:	f8c4 8054 	str.w	r8, [r4, #84]	; 0x54
  DWT->LAR = 0xC5ACCE55U;
  20184e:	f8df e164 	ldr.w	lr, [pc, #356]	; 2019b4 <main+0x244>
  CoreDebug->DEMCR |= CoreDebug_DEMCR_TRCENA_Msk;
  201852:	f8cc 300c 	str.w	r3, [ip, #12]
    SCB->SHPR[(((uint32_t)(int32_t)IRQn) & 0xFUL)-4UL] = (uint8_t)((priority << (8U - __NVIC_PRIO_BITS)) & (uint32_t)0xFFUL);
  201856:	f04f 0c10 	mov.w	ip, #16
  DWT->LAR = 0xC5ACCE55U;
  20185a:	4b4c      	ldr	r3, [pc, #304]	; (20198c <main+0x21c>)
  tqp->next = (thread_t *)tqp;
  20185c:	65a0      	str	r0, [r4, #88]	; 0x58
  tqp->prev = (thread_t *)tqp;
  20185e:	65e0      	str	r0, [r4, #92]	; 0x5c
  201860:	f8c3 efb0 	str.w	lr, [r3, #4016]	; 0xfb0
  201864:	f04f 0e20 	mov.w	lr, #32
  DWT->CTRL |= DWT_CTRL_CYCCNTENA_Msk;
  201868:	6818      	ldr	r0, [r3, #0]
  20186a:	4310      	orrs	r0, r2
  20186c:	6018      	str	r0, [r3, #0]
  20186e:	f881 c01f 	strb.w	ip, [r1, #31]
  201872:	f881 e022 	strb.w	lr, [r1, #34]	; 0x22
  201876:	f386 8811 	msr	BASEPRI, r6
  __ASM volatile ("cpsie i" : : : "memory");
  20187a:	b662      	cpsie	i
  __ASM volatile ("MSR basepri, %0" : : "r" (value) : "memory");
  20187c:	f38e 8811 	msr	BASEPRI, lr
  tp->wabase = tdp->wbase;
  201880:	4b43      	ldr	r3, [pc, #268]	; (201990 <main+0x220>)
  tp->state     = CH_STATE_WTSTART;
  201882:	f04f 0802 	mov.w	r8, #2
  REG_INSERT(tp);
  201886:	f8d4 e014 	ldr.w	lr, [r4, #20]
  PORT_SETUP_CONTEXT(tp, tdp->wbase, tp, tdp->funcp, tdp->arg);
  20188a:	f103 006c 	add.w	r0, r3, #108	; 0x6c
  REG_INSERT(tp);
  20188e:	f103 0190 	add.w	r1, r3, #144	; 0x90
  tp->prio      = prio;
  201892:	f8c3 2098 	str.w	r2, [r3, #152]	; 0x98
  tlp->next = (thread_t *)tlp;
  201896:	f103 0cb8 	add.w	ip, r3, #184	; 0xb8
  tp->realprio  = prio;
  20189a:	f8c3 20cc 	str.w	r2, [r3, #204]	; 0xcc
  tp->refs      = (trefs_t)1;
  20189e:	f883 20b2 	strb.w	r2, [r3, #178]	; 0xb2
  tqp->next = (thread_t *)tqp;
  2018a2:	f103 02bc 	add.w	r2, r3, #188	; 0xbc
  PORT_SETUP_CONTEXT(tp, tdp->wbase, tp, tdp->funcp, tdp->arg);
  2018a6:	f8c3 009c 	str.w	r0, [r3, #156]	; 0x9c
  tp->state     = CH_STATE_WTSTART;
  2018aa:	f883 80b0 	strb.w	r8, [r3, #176]	; 0xb0
  PORT_SETUP_CONTEXT(tp, tdp->wbase, tp, tdp->funcp, tdp->arg);
  2018ae:	4839      	ldr	r0, [pc, #228]	; (201994 <main+0x224>)
  tp->name      = name;
  2018b0:	f8df 8104 	ldr.w	r8, [pc, #260]	; 2019b8 <main+0x248>
  PORT_SETUP_CONTEXT(tp, tdp->wbase, tp, tdp->funcp, tdp->arg);
  2018b4:	4d38      	ldr	r5, [pc, #224]	; (201998 <main+0x228>)
  2018b6:	66d8      	str	r0, [r3, #108]	; 0x6c
  chSchWakeupS(tp, MSG_OK);
  2018b8:	4608      	mov	r0, r1
  PORT_SETUP_CONTEXT(tp, tdp->wbase, tp, tdp->funcp, tdp->arg);
  2018ba:	671e      	str	r6, [r3, #112]	; 0x70
  REG_INSERT(tp);
  2018bc:	f8c3 e0a4 	str.w	lr, [r3, #164]	; 0xa4
  tp->flags     = CH_FLAG_MODE_STATIC;
  2018c0:	f883 60b1 	strb.w	r6, [r3, #177]	; 0xb1
  tp->mtxlist   = NULL;
  2018c4:	f8c3 60c8 	str.w	r6, [r3, #200]	; 0xc8
  tp->epending  = (eventmask_t)0;
  2018c8:	f8c3 60c4 	str.w	r6, [r3, #196]	; 0xc4
  REG_INSERT(tp);
  2018cc:	f8c3 40a0 	str.w	r4, [r3, #160]	; 0xa0
  tp->wabase = tdp->wbase;
  2018d0:	f8c3 30ac 	str.w	r3, [r3, #172]	; 0xac
  tp->name      = name;
  2018d4:	f8c3 80a8 	str.w	r8, [r3, #168]	; 0xa8
  PORT_SETUP_CONTEXT(tp, tdp->wbase, tp, tdp->funcp, tdp->arg);
  2018d8:	f8c3 508c 	str.w	r5, [r3, #140]	; 0x8c
  REG_INSERT(tp);
  2018dc:	f8ce 1010 	str.w	r1, [lr, #16]
  tlp->next = (thread_t *)tlp;
  2018e0:	f8c3 c0b8 	str.w	ip, [r3, #184]	; 0xb8
  tqp->next = (thread_t *)tqp;
  2018e4:	f8c3 20bc 	str.w	r2, [r3, #188]	; 0xbc
  tqp->prev = (thread_t *)tqp;
  2018e8:	f8c3 20c0 	str.w	r2, [r3, #192]	; 0xc0
  2018ec:	6161      	str	r1, [r4, #20]
  chSchWakeupS(tp, MSG_OK);
  2018ee:	f000 fc67 	bl	2021c0 <chSchWakeupS.constprop.42>
  2018f2:	f386 8811 	msr	BASEPRI, r6
  rccResetAHB1(~0);
  2018f6:	4b29      	ldr	r3, [pc, #164]	; (20199c <main+0x22c>)
  PWR->CR1 |= PWR_CR1_DBP;
  2018f8:	4929      	ldr	r1, [pc, #164]	; (2019a0 <main+0x230>)
  rccResetAHB1(~0);
  2018fa:	691a      	ldr	r2, [r3, #16]
  2018fc:	611f      	str	r7, [r3, #16]
  2018fe:	611e      	str	r6, [r3, #16]
  rccResetAHB2(~0);
  201900:	695a      	ldr	r2, [r3, #20]
  201902:	615f      	str	r7, [r3, #20]
  201904:	615e      	str	r6, [r3, #20]
  rccResetAPB1(~RCC_APB1RSTR_PWRRST);
  201906:	6a1a      	ldr	r2, [r3, #32]
  201908:	f062 5280 	orn	r2, r2, #268435456	; 0x10000000
  20190c:	621a      	str	r2, [r3, #32]
  20190e:	621e      	str	r6, [r3, #32]
  rccResetAPB2(~0);
  201910:	6a5a      	ldr	r2, [r3, #36]	; 0x24
  201912:	625f      	str	r7, [r3, #36]	; 0x24
  201914:	625e      	str	r6, [r3, #36]	; 0x24
  PWR->CR1 |= PWR_CR1_DBP;
  201916:	680a      	ldr	r2, [r1, #0]
  201918:	f442 7280 	orr.w	r2, r2, #256	; 0x100
  20191c:	600a      	str	r2, [r1, #0]
  if ((RCC->BDCR & STM32_RTCSEL_MASK) != STM32_RTCSEL) {
  20191e:	6f1a      	ldr	r2, [r3, #112]	; 0x70
  201920:	f402 7240 	and.w	r2, r2, #768	; 0x300
  201924:	f5b2 7f80 	cmp.w	r2, #256	; 0x100
  201928:	d003      	beq.n	201932 <main+0x1c2>
    RCC->BDCR = RCC_BDCR_BDRST;
  20192a:	f44f 3280 	mov.w	r2, #65536	; 0x10000
  20192e:	671a      	str	r2, [r3, #112]	; 0x70
    RCC->BDCR = 0;
  201930:	671e      	str	r6, [r3, #112]	; 0x70
  RCC->BDCR |= STM32_LSEDRV | RCC_BDCR_LSEON;
  201932:	4b1a      	ldr	r3, [pc, #104]	; (20199c <main+0x22c>)
  201934:	9d01      	ldr	r5, [sp, #4]
  201936:	6f1a      	ldr	r2, [r3, #112]	; 0x70
  while ((RCC->BDCR & RCC_BDCR_LSERDY) == 0)
  201938:	4619      	mov	r1, r3
  RCC->BDCR |= STM32_LSEDRV | RCC_BDCR_LSEON;
  20193a:	f042 0219 	orr.w	r2, r2, #25
  20193e:	671a      	str	r2, [r3, #112]	; 0x70
  while ((RCC->BDCR & RCC_BDCR_LSERDY) == 0)
  201940:	6f0b      	ldr	r3, [r1, #112]	; 0x70
  201942:	079b      	lsls	r3, r3, #30
  201944:	d5fc      	bpl.n	201940 <main+0x1d0>
  PWR->CSR1 &= ~PWR_CSR1_BRE;
  201946:	4e16      	ldr	r6, [pc, #88]	; (2019a0 <main+0x230>)
 * @init
 */
void dmaInit(void) {
  unsigned i;

  dma_streams_mask = 0U;
  201948:	2000      	movs	r0, #0
  20194a:	9501      	str	r5, [sp, #4]
  20194c:	6872      	ldr	r2, [r6, #4]
  for (i = 0U; i < STM32_DMA_STREAMS; i++) {
  20194e:	4684      	mov	ip, r0
  201950:	4914      	ldr	r1, [pc, #80]	; (2019a4 <main+0x234>)
    _stm32_dma_streams[i].stream->CR = 0U;
  201952:	4603      	mov	r3, r0
  201954:	f422 7200 	bic.w	r2, r2, #512	; 0x200
  dma_streams_mask = 0U;
  201958:	4f13      	ldr	r7, [pc, #76]	; (2019a8 <main+0x238>)
  20195a:	9d01      	ldr	r5, [sp, #4]
  20195c:	6072      	str	r2, [r6, #4]
  20195e:	4a13      	ldr	r2, [pc, #76]	; (2019ac <main+0x23c>)
  201960:	6010      	str	r0, [r2, #0]
  201962:	e02d      	b.n	2019c0 <main+0x250>
  201964:	20000c98 	.word	0x20000c98
  201968:	20000a20 	.word	0x20000a20
  20196c:	00200b41 	.word	0x00200b41
  201970:	20000ac8 	.word	0x20000ac8
  201974:	20020000 	.word	0x20020000
  201978:	20000ac4 	.word	0x20000ac4
  20197c:	20080000 	.word	0x20080000
  201980:	e000ed00 	.word	0xe000ed00
  201984:	08002898 	.word	0x08002898
  201988:	05fa0300 	.word	0x05fa0300
  20198c:	e0001000 	.word	0xe0001000
  201990:	20000948 	.word	0x20000948
  201994:	00200c01 	.word	0x00200c01
  201998:	002002e5 	.word	0x002002e5
  20199c:	40023800 	.word	0x40023800
  2019a0:	40007000 	.word	0x40007000
  2019a4:	080027bc 	.word	0x080027bc
  2019a8:	40026010 	.word	0x40026010
  2019ac:	20000ac0 	.word	0x20000ac0
  2019b0:	e000edf0 	.word	0xe000edf0
  2019b4:	c5acce55 	.word	0xc5acce55
  2019b8:	080028c0 	.word	0x080028c0
  2019bc:	f851 7c0c 	ldr.w	r7, [r1, #-12]
    dma_isr_redir[i].dma_func = NULL;
  2019c0:	4ad5      	ldr	r2, [pc, #852]	; (201d18 <main+0x5a8>)
  2019c2:	310c      	adds	r1, #12
    _stm32_dma_streams[i].stream->CR = 0U;
  2019c4:	603b      	str	r3, [r7, #0]
    dma_isr_redir[i].dma_func = NULL;
  2019c6:	f842 303c 	str.w	r3, [r2, ip, lsl #3]
  for (i = 0U; i < STM32_DMA_STREAMS; i++) {
  2019ca:	f10c 0c01 	add.w	ip, ip, #1
  2019ce:	f1bc 0f10 	cmp.w	ip, #16
  2019d2:	d1f3      	bne.n	2019bc <main+0x24c>
  }
  DMA1->LIFCR = 0xFFFFFFFFU;
  2019d4:	f04f 3eff 	mov.w	lr, #4294967295
  2019d8:	4ed0      	ldr	r6, [pc, #832]	; (201d1c <main+0x5ac>)
  DMA1->HIFCR = 0xFFFFFFFFU;
  DMA2->LIFCR = 0xFFFFFFFFU;
  2019da:	4ad1      	ldr	r2, [pc, #836]	; (201d20 <main+0x5b0>)
  RCC->AHB1ENR   |= AHB1_EN_MASK;
  2019dc:	f240 70ff 	movw	r0, #2047	; 0x7ff
  2019e0:	4fd0      	ldr	r7, [pc, #832]	; (201d24 <main+0x5b4>)
  gpiop->ODR     = config->odr;
  2019e2:	f64f 71ff 	movw	r1, #65535	; 0xffff
  2019e6:	9501      	str	r5, [sp, #4]
  2019e8:	f64b 797e 	movw	r9, #49022	; 0xbf7e
  DMA1->LIFCR = 0xFFFFFFFFU;
  2019ec:	f8c6 e008 	str.w	lr, [r6, #8]
  gpiop->AFRH    = config->afrh;
  2019f0:	f44f 0b30 	mov.w	fp, #11534336	; 0xb00000
  DMA1->HIFCR = 0xFFFFFFFFU;
  2019f4:	f8c6 e00c 	str.w	lr, [r6, #12]
  gpiop->OSPEEDR = config->ospeedr;
  2019f8:	f06f 4570 	mvn.w	r5, #4026531840	; 0xf0000000
  DMA2->LIFCR = 0xFFFFFFFFU;
  2019fc:	f8c2 e008 	str.w	lr, [r2, #8]
  DMA2->HIFCR = 0xFFFFFFFFU;
  201a00:	f8c2 e00c 	str.w	lr, [r2, #12]
  RCC->AHB1ENR   |= AHB1_EN_MASK;
  201a04:	6b3a      	ldr	r2, [r7, #48]	; 0x30
 *
 * @init
 */
void adcObjectInit(ADCDriver *adcp) {

  adcp->state    = ADC_STOP;
  201a06:	4ec8      	ldr	r6, [pc, #800]	; (201d28 <main+0x5b8>)
  201a08:	4302      	orrs	r2, r0
  iqp->q_buffer  = bp;
  201a0a:	f8df a360 	ldr.w	sl, [pc, #864]	; 201d6c <main+0x5fc>
  201a0e:	633a      	str	r2, [r7, #48]	; 0x30
  RCC->AHB1LPENR |= AHB1_LPEN_MASK;
  201a10:	6d3a      	ldr	r2, [r7, #80]	; 0x50
  201a12:	ea42 0800 	orr.w	r8, r2, r0
  gpiop->OTYPER  = config->otyper;
  201a16:	48c5      	ldr	r0, [pc, #788]	; (201d2c <main+0x5bc>)
  sdp->vmt = &vmt;
  201a18:	4ac5      	ldr	r2, [pc, #788]	; (201d30 <main+0x5c0>)
  RCC->AHB1LPENR |= AHB1_LPEN_MASK;
  201a1a:	f8c7 8050 	str.w	r8, [r7, #80]	; 0x50
  gpiop->PUPDR   = config->pupdr;
  201a1e:	f8df 8350 	ldr.w	r8, [pc, #848]	; 201d70 <main+0x600>
  gpiop->OTYPER  = config->otyper;
  201a22:	6043      	str	r3, [r0, #4]
  gpiop->OSPEEDR = config->ospeedr;
  201a24:	f8c0 e008 	str.w	lr, [r0, #8]
  gpiop->PUPDR   = config->pupdr;
  201a28:	f8c0 800c 	str.w	r8, [r0, #12]
  gpiop->AFRL    = config->afrl;
  201a2c:	f8df 8344 	ldr.w	r8, [pc, #836]	; 201d74 <main+0x604>
  gpiop->ODR     = config->odr;
  201a30:	6141      	str	r1, [r0, #20]
  gpiop->AFRL    = config->afrl;
  201a32:	f8c0 8020 	str.w	r8, [r0, #32]
  gpiop->AFRH    = config->afrh;
  201a36:	f8df 8340 	ldr.w	r8, [pc, #832]	; 201d78 <main+0x608>
  201a3a:	f8c0 8024 	str.w	r8, [r0, #36]	; 0x24
  gpiop->MODER   = config->moder;
  201a3e:	f8df 833c 	ldr.w	r8, [pc, #828]	; 201d7c <main+0x60c>
  201a42:	f8c0 8000 	str.w	r8, [r0]
  gpiop->PUPDR   = config->pupdr;
  201a46:	f04f 3855 	mov.w	r8, #1431655765	; 0x55555555
  gpiop->OTYPER  = config->otyper;
  201a4a:	f8c0 3404 	str.w	r3, [r0, #1028]	; 0x404
  gpiop->OSPEEDR = config->ospeedr;
  201a4e:	f8c0 e408 	str.w	lr, [r0, #1032]	; 0x408
  gpiop->PUPDR   = config->pupdr;
  201a52:	f10e 4e8a 	add.w	lr, lr, #1157627904	; 0x45000000
  201a56:	f10e 1e55 	add.w	lr, lr, #5570645	; 0x550055
  201a5a:	f50e 5ea8 	add.w	lr, lr, #5376	; 0x1500
  201a5e:	f8c0 e40c 	str.w	lr, [r0, #1036]	; 0x40c
  gpiop->MODER   = config->moder;
  201a62:	f8df e31c 	ldr.w	lr, [pc, #796]	; 201d80 <main+0x610>
  gpiop->ODR     = config->odr;
  201a66:	f8c0 9414 	str.w	r9, [r0, #1044]	; 0x414
  gpiop->AFRL    = config->afrl;
  201a6a:	f8c0 3420 	str.w	r3, [r0, #1056]	; 0x420
  gpiop->AFRH    = config->afrh;
  201a6e:	f8c0 b424 	str.w	fp, [r0, #1060]	; 0x424
  gpiop->MODER   = config->moder;
  201a72:	f8c0 e400 	str.w	lr, [r0, #1024]	; 0x400
  gpiop->OTYPER  = config->otyper;
  201a76:	f500 6000 	add.w	r0, r0, #2048	; 0x800
  gpiop->PUPDR   = config->pupdr;
  201a7a:	f8df e308 	ldr.w	lr, [pc, #776]	; 201d84 <main+0x614>
  gpiop->OTYPER  = config->otyper;
  201a7e:	6043      	str	r3, [r0, #4]
  gpiop->OSPEEDR = config->ospeedr;
  201a80:	6085      	str	r5, [r0, #8]
  gpiop->MODER   = config->moder;
  201a82:	f640 2508 	movw	r5, #2568	; 0xa08
  gpiop->PUPDR   = config->pupdr;
  201a86:	f8c0 e00c 	str.w	lr, [r0, #12]
  gpiop->AFRL    = config->afrl;
  201a8a:	f8df e2fc 	ldr.w	lr, [pc, #764]	; 201d88 <main+0x618>
  gpiop->ODR     = config->odr;
  201a8e:	6141      	str	r1, [r0, #20]
  gpiop->AFRL    = config->afrl;
  201a90:	f8c0 e020 	str.w	lr, [r0, #32]
  gpiop->AFRH    = config->afrh;
  201a94:	6243      	str	r3, [r0, #36]	; 0x24
  gpiop->MODER   = config->moder;
  201a96:	6005      	str	r5, [r0, #0]
  gpiop->OSPEEDR = config->ospeedr;
  201a98:	f46f 1540 	mvn.w	r5, #3145728	; 0x300000
  gpiop->OTYPER  = config->otyper;
  201a9c:	f8c0 3404 	str.w	r3, [r0, #1028]	; 0x404
  gpiop->PUPDR   = config->pupdr;
  201aa0:	f8df e2e8 	ldr.w	lr, [pc, #744]	; 201d8c <main+0x61c>
  gpiop->OSPEEDR = config->ospeedr;
  201aa4:	f8c0 5408 	str.w	r5, [r0, #1032]	; 0x408
  gpiop->AFRH    = config->afrh;
  201aa8:	2577      	movs	r5, #119	; 0x77
  gpiop->PUPDR   = config->pupdr;
  201aaa:	f8c0 e40c 	str.w	lr, [r0, #1036]	; 0x40c
  gpiop->ODR     = config->odr;
  201aae:	f8c0 1414 	str.w	r1, [r0, #1044]	; 0x414
  gpiop->OSPEEDR = config->ospeedr;
  201ab2:	f8df e2dc 	ldr.w	lr, [pc, #732]	; 201d90 <main+0x620>
  gpiop->AFRL    = config->afrl;
  201ab6:	f8c0 3420 	str.w	r3, [r0, #1056]	; 0x420
  gpiop->AFRH    = config->afrh;
  201aba:	f8c0 5424 	str.w	r5, [r0, #1060]	; 0x424
  gpiop->MODER   = config->moder;
  201abe:	f44f 2520 	mov.w	r5, #655360	; 0xa0000
  gpiop->PUPDR   = config->pupdr;
  201ac2:	f8df b2d0 	ldr.w	fp, [pc, #720]	; 201d94 <main+0x624>
  gpiop->MODER   = config->moder;
  201ac6:	f8c0 5400 	str.w	r5, [r0, #1024]	; 0x400
  201aca:	f04f 6508 	mov.w	r5, #142606336	; 0x8800000
  gpiop->OTYPER  = config->otyper;
  201ace:	f8c0 3804 	str.w	r3, [r0, #2052]	; 0x804
  gpiop->OSPEEDR = config->ospeedr;
  201ad2:	f8c0 e808 	str.w	lr, [r0, #2056]	; 0x808
  gpiop->PUPDR   = config->pupdr;
  201ad6:	f8c0 880c 	str.w	r8, [r0, #2060]	; 0x80c
  gpiop->OTYPER  = config->otyper;
  201ada:	f8df e2bc 	ldr.w	lr, [pc, #700]	; 201d98 <main+0x628>
  gpiop->ODR     = config->odr;
  201ade:	f8c0 1814 	str.w	r1, [r0, #2068]	; 0x814
  gpiop->AFRL    = config->afrl;
  201ae2:	f8c0 3820 	str.w	r3, [r0, #2080]	; 0x820
  gpiop->AFRH    = config->afrh;
  201ae6:	f8c0 3824 	str.w	r3, [r0, #2084]	; 0x824
  gpiop->MODER   = config->moder;
  201aea:	f8c0 3800 	str.w	r3, [r0, #2048]	; 0x800
  gpiop->OSPEEDR = config->ospeedr;
  201aee:	4891      	ldr	r0, [pc, #580]	; (201d34 <main+0x5c4>)
  gpiop->OTYPER  = config->otyper;
  201af0:	f8ce 3004 	str.w	r3, [lr, #4]
  gpiop->OSPEEDR = config->ospeedr;
  201af4:	f8ce 0008 	str.w	r0, [lr, #8]
  gpiop->OTYPER  = config->otyper;
  201af8:	488f      	ldr	r0, [pc, #572]	; (201d38 <main+0x5c8>)
  gpiop->PUPDR   = config->pupdr;
  201afa:	f8ce 800c 	str.w	r8, [lr, #12]
  gpiop->ODR     = config->odr;
  201afe:	f8ce 1014 	str.w	r1, [lr, #20]
  gpiop->AFRL    = config->afrl;
  201b02:	f8ce 3020 	str.w	r3, [lr, #32]
  gpiop->AFRH    = config->afrh;
  201b06:	f8ce 3024 	str.w	r3, [lr, #36]	; 0x24
  gpiop->MODER   = config->moder;
  201b0a:	f8ce 3000 	str.w	r3, [lr]
  gpiop->OSPEEDR = config->ospeedr;
  201b0e:	f8df e28c 	ldr.w	lr, [pc, #652]	; 201d9c <main+0x62c>
  gpiop->OTYPER  = config->otyper;
  201b12:	6043      	str	r3, [r0, #4]
  gpiop->OSPEEDR = config->ospeedr;
  201b14:	f8c0 e008 	str.w	lr, [r0, #8]
  201b18:	f04f 0e01 	mov.w	lr, #1
  gpiop->PUPDR   = config->pupdr;
  201b1c:	f8c0 b00c 	str.w	fp, [r0, #12]
  gpiop->AFRH    = config->afrh;
  201b20:	f8df b27c 	ldr.w	fp, [pc, #636]	; 201da0 <main+0x630>
  gpiop->ODR     = config->odr;
  201b24:	6141      	str	r1, [r0, #20]
  gpiop->AFRL    = config->afrl;
  201b26:	6203      	str	r3, [r0, #32]
  gpiop->AFRH    = config->afrh;
  201b28:	f8c0 b024 	str.w	fp, [r0, #36]	; 0x24
  gpiop->MODER   = config->moder;
  201b2c:	6005      	str	r5, [r0, #0]
  gpiop->OSPEEDR = config->ospeedr;
  201b2e:	250f      	movs	r5, #15
  gpiop->PUPDR   = config->pupdr;
  201b30:	f8df b270 	ldr.w	fp, [pc, #624]	; 201da4 <main+0x634>
  gpiop->OTYPER  = config->otyper;
  201b34:	f8c0 3404 	str.w	r3, [r0, #1028]	; 0x404
  gpiop->OSPEEDR = config->ospeedr;
  201b38:	f8c0 5408 	str.w	r5, [r0, #1032]	; 0x408
  tqp->next = (thread_t *)tqp;
  201b3c:	f106 0518 	add.w	r5, r6, #24
  gpiop->PUPDR   = config->pupdr;
  201b40:	f8c0 b40c 	str.w	fp, [r0, #1036]	; 0x40c
  iqp->q_top     = bp + size;
  201b44:	f10a 0b10 	add.w	fp, sl, #16
  gpiop->ODR     = config->odr;
  201b48:	f8c0 1414 	str.w	r1, [r0, #1044]	; 0x414
  gpiop->AFRL    = config->afrl;
  201b4c:	f8c0 3420 	str.w	r3, [r0, #1056]	; 0x420
  gpiop->AFRH    = config->afrh;
  201b50:	f8c0 3424 	str.w	r3, [r0, #1060]	; 0x424
  gpiop->MODER   = config->moder;
  201b54:	f8c0 3400 	str.w	r3, [r0, #1024]	; 0x400
  gpiop->OTYPER  = config->otyper;
  201b58:	f500 6000 	add.w	r0, r0, #2048	; 0x800
  201b5c:	6043      	str	r3, [r0, #4]
  gpiop->OSPEEDR = config->ospeedr;
  201b5e:	6083      	str	r3, [r0, #8]
  gpiop->PUPDR   = config->pupdr;
  201b60:	f8c0 800c 	str.w	r8, [r0, #12]
  adcp->config   = NULL;
  201b64:	6073      	str	r3, [r6, #4]
  gpiop->ODR     = config->odr;
  201b66:	6141      	str	r1, [r0, #20]
  adcp->samples  = NULL;
  201b68:	60b3      	str	r3, [r6, #8]
  gpiop->AFRL    = config->afrl;
  201b6a:	6203      	str	r3, [r0, #32]
  adcp->depth    = 0;
  201b6c:	60f3      	str	r3, [r6, #12]
  gpiop->AFRH    = config->afrh;
  201b6e:	6243      	str	r3, [r0, #36]	; 0x24
  adcp->grpp     = NULL;
  201b70:	6133      	str	r3, [r6, #16]
  gpiop->MODER   = config->moder;
  201b72:	6003      	str	r3, [r0, #0]
#if ADC_USE_WAIT == TRUE
  adcp->thread   = NULL;
  201b74:	6173      	str	r3, [r6, #20]
  gpiop->OTYPER  = config->otyper;
  201b76:	f8c0 3404 	str.w	r3, [r0, #1028]	; 0x404
  201b7a:	6233      	str	r3, [r6, #32]
  gpiop->OSPEEDR = config->ospeedr;
  201b7c:	f8c0 3408 	str.w	r3, [r0, #1032]	; 0x408
  201b80:	61b5      	str	r5, [r6, #24]
  gpiop->PUPDR   = config->pupdr;
  201b82:	f8c0 840c 	str.w	r8, [r0, #1036]	; 0x40c
  tqp->prev = (thread_t *)tqp;
  201b86:	61f5      	str	r5, [r6, #28]

#if defined(__CORE_CM0_H_GENERIC)
  NVIC->IP[_IP_IDX(n)] = (NVIC->IP[_IP_IDX(n)] & ~(0xFFU << _BIT_SHIFT(n))) |
                         (NVIC_PRIORITY_MASK(prio) << _BIT_SHIFT(n));
#else
  NVIC->IP[n] = NVIC_PRIORITY_MASK(prio);
  201b88:	f04f 0560 	mov.w	r5, #96	; 0x60
  gpiop->ODR     = config->odr;
  201b8c:	f8c0 1414 	str.w	r1, [r0, #1044]	; 0x414
  gpiop->AFRL    = config->afrl;
  201b90:	f8c0 3420 	str.w	r3, [r0, #1056]	; 0x420
  gpiop->AFRH    = config->afrh;
  201b94:	f8c0 3424 	str.w	r3, [r0, #1060]	; 0x424
  gpiop->MODER   = config->moder;
  201b98:	f8c0 3400 	str.w	r3, [r0, #1024]	; 0x400
  gpiop->OTYPER  = config->otyper;
  201b9c:	f8c0 3804 	str.w	r3, [r0, #2052]	; 0x804
  gpiop->OSPEEDR = config->ospeedr;
  201ba0:	f8c0 3808 	str.w	r3, [r0, #2056]	; 0x808
  gpiop->PUPDR   = config->pupdr;
  201ba4:	f8c0 880c 	str.w	r8, [r0, #2060]	; 0x80c
  201ba8:	4690      	mov	r8, r2
  gpiop->ODR     = config->odr;
  201baa:	f8c0 1814 	str.w	r1, [r0, #2068]	; 0x814
  ADCD1.adc = ADC1;
  201bae:	4963      	ldr	r1, [pc, #396]	; (201d3c <main+0x5cc>)
  gpiop->AFRL    = config->afrl;
  201bb0:	f8c0 3820 	str.w	r3, [r0, #2080]	; 0x820
  gpiop->AFRH    = config->afrh;
  201bb4:	f8c0 3824 	str.w	r3, [r0, #2084]	; 0x824
  gpiop->MODER   = config->moder;
  201bb8:	f8c0 3800 	str.w	r3, [r0, #2048]	; 0x800
  tqp->next = (thread_t *)tqp;
  201bbc:	f102 000c 	add.w	r0, r2, #12
  201bc0:	62b1      	str	r1, [r6, #40]	; 0x28
  ADCD1.dmastp  = STM32_DMA_STREAM(STM32_ADC_ADC1_DMA_STREAM);
  201bc2:	495f      	ldr	r1, [pc, #380]	; (201d40 <main+0x5d0>)
  adcp->state    = ADC_STOP;
  201bc4:	f886 e000 	strb.w	lr, [r6]
  201bc8:	62f1      	str	r1, [r6, #44]	; 0x2c
  ADCD1.dmamode = STM32_DMA_CR_CHSEL(ADC1_DMA_CHANNEL) |
  201bca:	495e      	ldr	r1, [pc, #376]	; (201d44 <main+0x5d4>)
  oqp->q_buffer  = bp;
  201bcc:	f8df 91d8 	ldr.w	r9, [pc, #472]	; 201da8 <main+0x638>
  201bd0:	6331      	str	r1, [r6, #48]	; 0x30
  201bd2:	495d      	ldr	r1, [pc, #372]	; (201d48 <main+0x5d8>)
  201bd4:	f881 5312 	strb.w	r5, [r1, #786]	; 0x312
#endif
  NVIC->ICPR[n >> 5U] = 1U << (n & 0x1FU);
  201bd8:	f44f 2580 	mov.w	r5, #262144	; 0x40000
  201bdc:	f8c1 5180 	str.w	r5, [r1, #384]	; 0x180
  NVIC->ISER[n >> 5U] = 1U << (n & 0x1FU);
  201be0:	600d      	str	r5, [r1, #0]
  oqp->q_top     = bp + size;
  201be2:	f109 0510 	add.w	r5, r9, #16
  iqp->q_counter = 0;
  201be6:	6153      	str	r3, [r2, #20]
  oqp->q_counter = size;
  201be8:	f8c2 c038 	str.w	ip, [r2, #56]	; 0x38
  oqp->q_notify  = onfy;
  201bec:	f8df c1bc 	ldr.w	ip, [pc, #444]	; 201dac <main+0x63c>
  201bf0:	60d0      	str	r0, [r2, #12]
  201bf2:	f8c2 c04c 	str.w	ip, [r2, #76]	; 0x4c
  201bf6:	f8df c1b8 	ldr.w	ip, [pc, #440]	; 201db0 <main+0x640>
  tqp->prev = (thread_t *)tqp;
  201bfa:	6110      	str	r0, [r2, #16]
  201bfc:	f848 cb04 	str.w	ip, [r8], #4
 *
 * @init
 */
void extObjectInit(EXTDriver *extp) {

  extp->state  = EXT_STOP;
  201c00:	4852      	ldr	r0, [pc, #328]	; (201d4c <main+0x5dc>)
 *
 * @init
 */
static inline void chEvtObjectInit(event_source_t *esp) {

  esp->next = (event_listener_t *)esp;
  201c02:	f8c2 8004 	str.w	r8, [r2, #4]
  GPTD4.tim = STM32_TIM4;
  201c06:	f8df c1ac 	ldr.w	ip, [pc, #428]	; 201db4 <main+0x644>
  201c0a:	f8df 81ac 	ldr.w	r8, [pc, #428]	; 201db8 <main+0x648>
  201c0e:	f880 e000 	strb.w	lr, [r0]
  extp->config = NULL;
  201c12:	6043      	str	r3, [r0, #4]
  201c14:	f8c8 c00c 	str.w	ip, [r8, #12]
  ICUD8.tim = STM32_TIM8;
  201c18:	f50c 4c7c 	add.w	ip, ip, #64512	; 0xfc00
 *
 * @init
 */
void icuObjectInit(ICUDriver *icup) {

  icup->state  = ICU_STOP;
  201c1c:	484c      	ldr	r0, [pc, #304]	; (201d50 <main+0x5e0>)
  sdp->state = SD_STOP;
  201c1e:	f882 e008 	strb.w	lr, [r2, #8]
  201c22:	f880 e000 	strb.w	lr, [r0]
  icup->config = NULL;
  201c26:	6043      	str	r3, [r0, #4]
  201c28:	f8c0 c00c 	str.w	ip, [r0, #12]
  201c2c:	f04f 0c20 	mov.w	ip, #32
  icup->state  = ICU_STOP;
  201c30:	4848      	ldr	r0, [pc, #288]	; (201d54 <main+0x5e4>)
  iqp->q_buffer  = bp;
  201c32:	f8c2 a018 	str.w	sl, [r2, #24]
  iqp->q_rdptr   = bp;
  201c36:	f8c2 a024 	str.w	sl, [r2, #36]	; 0x24
  iqp->q_wrptr   = bp;
  201c3a:	f8c2 a020 	str.w	sl, [r2, #32]
  tqp->next = (thread_t *)tqp;
  201c3e:	f102 0a30 	add.w	sl, r2, #48	; 0x30
 *
 * @init
 */
void gptObjectInit(GPTDriver *gptp) {

  gptp->state  = GPT_STOP;
  201c42:	f888 e000 	strb.w	lr, [r8]
  201c46:	f880 e000 	strb.w	lr, [r0]
  ICUD9.tim = STM32_TIM9;
  201c4a:	f8df e170 	ldr.w	lr, [pc, #368]	; 201dbc <main+0x64c>
  iqp->q_notify  = infy;
  201c4e:	6293      	str	r3, [r2, #40]	; 0x28
  iqp->q_top     = bp + size;
  201c50:	f8c2 b01c 	str.w	fp, [r2, #28]
  NVIC->IP[n] = NVIC_PRIORITY_MASK(prio);
  201c54:	f04f 0bc0 	mov.w	fp, #192	; 0xc0
  oqp->q_buffer  = bp;
  201c58:	f8c2 903c 	str.w	r9, [r2, #60]	; 0x3c
  oqp->q_rdptr   = bp;
  201c5c:	f8c2 9048 	str.w	r9, [r2, #72]	; 0x48
  oqp->q_wrptr   = bp;
  201c60:	f8c2 9044 	str.w	r9, [r2, #68]	; 0x44

#if defined(__CORE_CM0_H_GENERIC)
  SCB->SHP[_SHP_IDX(handler)] = (SCB->SHP[_SHP_IDX(handler)] & ~(0xFFU << _BIT_SHIFT(handler))) |
                                (NVIC_PRIORITY_MASK(prio) << _BIT_SHIFT(handler));
#elif defined(__CORE_CM7_H_GENERIC)
  SCB->SHPR[handler] = NVIC_PRIORITY_MASK(prio);
  201c64:	f04f 0980 	mov.w	r9, #128	; 0x80
  oqp->q_top     = bp + size;
  201c68:	6415      	str	r5, [r2, #64]	; 0x40
  NVIC->ICPR[n >> 5U] = 1U << (n & 0x1FU);
  201c6a:	f44f 2580 	mov.w	r5, #262144	; 0x40000
  gptp->config = NULL;
  201c6e:	f8c8 3004 	str.w	r3, [r8, #4]
  icup->config = NULL;
  201c72:	6043      	str	r3, [r0, #4]
  iqp->q_link    = link;
  201c74:	62d2      	str	r2, [r2, #44]	; 0x2c
  201c76:	f8c2 a030 	str.w	sl, [r2, #48]	; 0x30
  tqp->prev = (thread_t *)tqp;
  201c7a:	f8c2 a034 	str.w	sl, [r2, #52]	; 0x34
  201c7e:	f8c0 e00c 	str.w	lr, [r0, #12]

#if STM32_SERIAL_USE_UART7
  sdObjectInit(&SD7);
  iqObjectInit(&SD7.iqueue, sd_in_buf7, sizeof sd_in_buf7, NULL, &SD7);
  oqObjectInit(&SD7.oqueue, sd_out_buf7, sizeof sd_out_buf7, notify7, &SD7);
  SD7.usart = UART7;
  201c82:	4835      	ldr	r0, [pc, #212]	; (201d58 <main+0x5e8>)
  SD7.clock = STM32_UART7CLK;
  201c84:	f8df e138 	ldr.w	lr, [pc, #312]	; 201dc0 <main+0x650>
  oqp->q_link    = link;
  201c88:	6512      	str	r2, [r2, #80]	; 0x50
  NVIC->IP[n] = NVIC_PRIORITY_MASK(prio);
  201c8a:	f881 b352 	strb.w	fp, [r1, #850]	; 0x352
  SD7.usart = UART7;
  201c8e:	6550      	str	r0, [r2, #84]	; 0x54
  NVIC->ICPR[n >> 5U] = 1U << (n & 0x1FU);
  201c90:	f8c1 5188 	str.w	r5, [r1, #392]	; 0x188
#endif /* OSAL_ST_MODE == OSAL_ST_MODE_FREERUNNING */

#if OSAL_ST_MODE == OSAL_ST_MODE_PERIODIC
  /* Periodic systick mode, the Cortex-Mx internal systick timer is used
     in this mode.*/
  SysTick->LOAD = (STM32_HCLK / OSAL_ST_FREQUENCY) - 1;
  201c94:	4831      	ldr	r0, [pc, #196]	; (201d5c <main+0x5ec>)
  SD7.clock = STM32_UART7CLK;
  201c96:	f8c2 e058 	str.w	lr, [r2, #88]	; 0x58
  201c9a:	f8df e128 	ldr.w	lr, [pc, #296]	; 201dc4 <main+0x654>
  NVIC->ISER[n >> 5U] = 1U << (n & 0x1FU);
  201c9e:	608d      	str	r5, [r1, #8]
  201ca0:	f8c0 e004 	str.w	lr, [r0, #4]
  SysTick->VAL = 0;
  201ca4:	6083      	str	r3, [r0, #8]
  SysTick->CTRL = SysTick_CTRL_CLKSOURCE_Msk |
  201ca6:	2307      	movs	r3, #7
  201ca8:	6003      	str	r3, [r0, #0]
  SCB->SHPR[handler] = NVIC_PRIORITY_MASK(prio);
  201caa:	f881 9c23 	strb.w	r9, [r1, #3107]	; 0xc23
  201cae:	f38c 8811 	msr	BASEPRI, ip
void sd_lld_start(SerialDriver *sdp, const SerialConfig *config) {

  if (config == NULL)
    config = &default_config;

  if (sdp->state == SD_STOP) {
  201cb2:	7a13      	ldrb	r3, [r2, #8]
  201cb4:	2b01      	cmp	r3, #1
  201cb6:	d103      	bne.n	201cc0 <main+0x550>
      rccEnableUSART6(FALSE);
    }
#endif
#if STM32_SERIAL_USE_UART7
    if (&SD7 == sdp) {
      rccEnableUART7(FALSE);
  201cb8:	6c3b      	ldr	r3, [r7, #64]	; 0x40
  201cba:	f043 4380 	orr.w	r3, r3, #1073741824	; 0x40000000
  201cbe:	643b      	str	r3, [r7, #64]	; 0x40
  u->BRR = (uint32_t)(sdp->clock / config->speed);
  201cc0:	6d93      	ldr	r3, [r2, #88]	; 0x58
  u->ICR = 0xFFFFFFFFU;
  201cc2:	f04f 31ff 	mov.w	r1, #4294967295
  u->BRR = (uint32_t)(sdp->clock / config->speed);
  201cc6:	4826      	ldr	r0, [pc, #152]	; (201d60 <main+0x5f0>)
  u->CR2 = config->cr2 | USART_CR2_LBDIE;
  201cc8:	f244 0e40 	movw	lr, #16448	; 0x4040
  u->CR3 = config->cr3 | USART_CR3_EIE;
  201ccc:	2701      	movs	r7, #1
  u->CR1 = config->cr1 | USART_CR1_UE | USART_CR1_PEIE |
  201cce:	f240 1c2d 	movw	ip, #301	; 0x12d
  u->BRR = (uint32_t)(sdp->clock / config->speed);
  201cd2:	fba0 3003 	umull	r3, r0, r0, r3
  USART_TypeDef *u = sdp->usart;
  201cd6:	6d53      	ldr	r3, [r2, #84]	; 0x54
  201cd8:	f04f 0900 	mov.w	r9, #0
  u->BRR = (uint32_t)(sdp->clock / config->speed);
  201cdc:	0c80      	lsrs	r0, r0, #18
  201cde:	60d8      	str	r0, [r3, #12]
  sdp->state = SD_READY;
  201ce0:	2002      	movs	r0, #2
  u->CR2 = config->cr2 | USART_CR2_LBDIE;
  201ce2:	f8c3 e004 	str.w	lr, [r3, #4]
  u->CR3 = config->cr3 | USART_CR3_EIE;
  201ce6:	609f      	str	r7, [r3, #8]
  u->CR1 = config->cr1 | USART_CR1_UE | USART_CR1_PEIE |
  201ce8:	f8c3 c000 	str.w	ip, [r3]
  u->ICR = 0xFFFFFFFFU;
  201cec:	6219      	str	r1, [r3, #32]
  201cee:	7210      	strb	r0, [r2, #8]
    sdp->rxmask = 0xFF;
  201cf0:	f882 105c 	strb.w	r1, [r2, #92]	; 0x5c
  201cf4:	f389 8811 	msr	BASEPRI, r9
    chSysInit();
    halInit();

    // Serial driver
    sdStart( &SD7, &sdcfg );
    palSetPadMode( GPIOE, 8, PAL_MODE_ALTERNATE(8) );    // TX
  201cf8:	f240 4202 	movw	r2, #1026	; 0x402
  201cfc:	f44f 7180 	mov.w	r1, #256	; 0x100
  201d00:	4818      	ldr	r0, [pc, #96]	; (201d64 <main+0x5f4>)
  201d02:	f7ff f8cd 	bl	200ea0 <_pal_lld_setgroupmode>
    palSetPadMode( GPIOE, 7, PAL_MODE_ALTERNATE(8) );    // RX
  201d06:	f240 4202 	movw	r2, #1026	; 0x402
  201d0a:	2180      	movs	r1, #128	; 0x80
  201d0c:	4815      	ldr	r0, [pc, #84]	; (201d64 <main+0x5f4>)
  201d0e:	f7ff f8c7 	bl	200ea0 <_pal_lld_setgroupmode>
 */
void chMBObjectInit(mailbox_t *mbp, msg_t *buf, cnt_t n) {

  chDbgCheck((mbp != NULL) && (buf != NULL) && (n > (cnt_t)0));

  mbp->buffer = buf;
  201d12:	4f15      	ldr	r7, [pc, #84]	; (201d68 <main+0x5f8>)
  201d14:	e058      	b.n	201dc8 <main+0x658>
  201d16:	bf00      	nop
  201d18:	20000a40 	.word	0x20000a40
  201d1c:	40026000 	.word	0x40026000
  201d20:	40026400 	.word	0x40026400
  201d24:	40023800 	.word	0x40023800
  201d28:	20000800 	.word	0x20000800
  201d2c:	40020000 	.word	0x40020000
  201d30:	20000c38 	.word	0x20000c38
  201d34:	003fcfff 	.word	0x003fcfff
  201d38:	40021800 	.word	0x40021800
  201d3c:	40012000 	.word	0x40012000
  201d40:	08002840 	.word	0x08002840
  201d44:	00022c16 	.word	0x00022c16
  201d48:	e000e100 	.word	0xe000e100
  201d4c:	20000834 	.word	0x20000834
  201d50:	2000084c 	.word	0x2000084c
  201d54:	20000864 	.word	0x20000864
  201d58:	40007800 	.word	0x40007800
  201d5c:	e000e010 	.word	0xe000e010
  201d60:	91a2b3c5 	.word	0x91a2b3c5
  201d64:	40021000 	.word	0x40021000
  201d68:	20000d0c 	.word	0x20000d0c
  201d6c:	20000ad0 	.word	0x20000ad0
  201d70:	40005551 	.word	0x40005551
  201d74:	b0000bb0 	.word	0xb0000bb0
  201d78:	000aaa0a 	.word	0x000aaa0a
  201d7c:	2aae8028 	.word	0x2aae8028
  201d80:	18004001 	.word	0x18004001
  201d84:	01555051 	.word	0x01555051
  201d88:	00bb00b0 	.word	0x00bb00b0
  201d8c:	55505555 	.word	0x55505555
  201d90:	cffffff3 	.word	0xcffffff3
  201d94:	51155555 	.word	0x51155555
  201d98:	40021400 	.word	0x40021400
  201d9c:	3cccf000 	.word	0x3cccf000
  201da0:	00b0b000 	.word	0x00b0b000
  201da4:	55555550 	.word	0x55555550
  201da8:	20000ae0 	.word	0x20000ae0
  201dac:	00200301 	.word	0x00200301
  201db0:	080028e4 	.word	0x080028e4
  201db4:	40000800 	.word	0x40000800
  201db8:	2000083c 	.word	0x2000083c
  201dbc:	40014000 	.word	0x40014000
  201dc0:	0337f980 	.word	0x0337f980
  201dc4:	00034bbf 	.word	0x00034bbf
  201dc8:	4bc7      	ldr	r3, [pc, #796]	; (2020e8 <main+0x978>)
  201dca:	2020      	movs	r0, #32
  tqp->next = (thread_t *)tqp;
  201dcc:	f107 0118 	add.w	r1, r7, #24
  mbp->rdptr  = buf;
  mbp->wrptr  = buf;
  mbp->top    = &buf[n];
  mbp->cnt    = (cnt_t)0;
  201dd0:	f8c7 9010 	str.w	r9, [r7, #16]
  201dd4:	183a      	adds	r2, r7, r0
  mbp->top    = &buf[n];
  201dd6:	f103 0ec8 	add.w	lr, r3, #200	; 0xc8
  mbp->reset  = false;
  201dda:	f887 9014 	strb.w	r9, [r7, #20]
  mbp->buffer = buf;
  201dde:	603b      	str	r3, [r7, #0]
  mbp->rdptr  = buf;
  201de0:	60fb      	str	r3, [r7, #12]
  mbp->wrptr  = buf;
  201de2:	60bb      	str	r3, [r7, #8]
  mbp->top    = &buf[n];
  201de4:	f8c7 e004 	str.w	lr, [r7, #4]
  201de8:	61b9      	str	r1, [r7, #24]
  tqp->prev = (thread_t *)tqp;
  201dea:	61f9      	str	r1, [r7, #28]
  tqp->next = (thread_t *)tqp;
  201dec:	623a      	str	r2, [r7, #32]
  tqp->prev = (thread_t *)tqp;
  201dee:	627a      	str	r2, [r7, #36]	; 0x24
  201df0:	f380 8811 	msr	BASEPRI, r0
  if (gptp->state == GPT_STOP) {
  201df4:	f898 3000 	ldrb.w	r3, [r8]
  osalDbgCheck((gptp != NULL) && (config != NULL));

  osalSysLock();
  osalDbgAssert((gptp->state == GPT_STOP) || (gptp->state == GPT_READY),
              "invalid state");
  gptp->config = config;
  201df8:	4abc      	ldr	r2, [pc, #752]	; (2020ec <main+0x97c>)
  201dfa:	2b01      	cmp	r3, #1
  201dfc:	f8c8 2004 	str.w	r2, [r8, #4]
  201e00:	f000 81b5 	beq.w	20216e <main+0x9fe>
  201e04:	f8d8 3008 	ldr.w	r3, [r8, #8]
  201e08:	4ab9      	ldr	r2, [pc, #740]	; (2020f0 <main+0x980>)
  201e0a:	095b      	lsrs	r3, r3, #5
  201e0c:	fba2 2303 	umull	r2, r3, r2, r3
  201e10:	09db      	lsrs	r3, r3, #7
  201e12:	3b01      	subs	r3, #1
  201e14:	b29b      	uxth	r3, r3
  gptp->tim->CR1 = 0;                           /* Initially stopped.       */
  201e16:	f8d8 200c 	ldr.w	r2, [r8, #12]
  201e1a:	2100      	movs	r1, #0
  gptp->tim->CR2 = gptp->config->cr2;
  201e1c:	f04f 0e20 	mov.w	lr, #32
  gpt_lld_start(gptp);
  gptp->state = GPT_READY;
  201e20:	2002      	movs	r0, #2
  gptp->tim->CR1 = 0;                           /* Initially stopped.       */
  201e22:	6011      	str	r1, [r2, #0]
  gptp->tim->CR2 = gptp->config->cr2;
  201e24:	f8c2 e004 	str.w	lr, [r2, #4]
  201e28:	f888 0000 	strb.w	r0, [r8]
  gptp->tim->PSC = psc;                         /* Prescaler value.         */
  201e2c:	6293      	str	r3, [r2, #40]	; 0x28
  gptp->tim->SR = 0;                            /* Clear pending IRQs.      */
  201e2e:	6111      	str	r1, [r2, #16]
  gptp->tim->DIER = gptp->config->dier &        /* DMA-related DIER bits.   */
  201e30:	60d1      	str	r1, [r2, #12]
  201e32:	f381 8811 	msr	BASEPRI, r1
#if 1
    /*
     * Fixed an errata on the STM32F7xx, the DAC clock is required for ADC
     * triggering.
     */
    rccEnableDAC1(false);
  201e36:	48af      	ldr	r0, [pc, #700]	; (2020f4 <main+0x984>)
  201e38:	6c03      	ldr	r3, [r0, #64]	; 0x40
  201e3a:	f043 5300 	orr.w	r3, r3, #536870912	; 0x20000000
  201e3e:	6403      	str	r3, [r0, #64]	; 0x40
  201e40:	f38e 8811 	msr	BASEPRI, lr
  if (adcp->state == ADC_STOP) {
  201e44:	7833      	ldrb	r3, [r6, #0]
  osalDbgCheck(adcp != NULL);

  osalSysLock();
  osalDbgAssert((adcp->state == ADC_STOP) || (adcp->state == ADC_READY),
                "invalid state");
  adcp->config = config;
  201e46:	6071      	str	r1, [r6, #4]
  201e48:	2b01      	cmp	r3, #1
  201e4a:	f000 80f9 	beq.w	202040 <main+0x8d0>
  adc_lld_start(adcp);
  adcp->state = ADC_READY;
  201e4e:	f04f 0a02 	mov.w	sl, #2
  201e52:	f04f 0900 	mov.w	r9, #0
  201e56:	f886 a000 	strb.w	sl, [r6]
  201e5a:	f389 8811 	msr	BASEPRI, r9

    // ADC driver
    adcStart(&ADCD1, NULL);
    palSetLineMode( LINE_ADC123_IN10, PAL_MODE_INPUT_ANALOG );
  201e5e:	2203      	movs	r2, #3
  201e60:	2101      	movs	r1, #1
  201e62:	48a5      	ldr	r0, [pc, #660]	; (2020f8 <main+0x988>)
  201e64:	f7ff f81c 	bl	200ea0 <_pal_lld_setgroupmode>
    palSetLineMode( LINE_ADC123_IN3, PAL_MODE_INPUT_ANALOG );
  201e68:	2203      	movs	r2, #3
  201e6a:	2108      	movs	r1, #8
  201e6c:	48a3      	ldr	r0, [pc, #652]	; (2020fc <main+0x98c>)
  201e6e:	f7ff f817 	bl	200ea0 <_pal_lld_setgroupmode>
  201e72:	f04f 0e20 	mov.w	lr, #32
  201e76:	f38e 8811 	msr	BASEPRI, lr
                "not ready");

  adcp->samples  = samples;
  adcp->depth    = depth;
  adcp->grpp     = grpp;
  adcp->state    = ADC_ACTIVE;
  201e7a:	2003      	movs	r0, #3
  mode = adcp->dmamode;
  201e7c:	6b33      	ldr	r3, [r6, #48]	; 0x30
  dmaStreamSetMemory0(adcp->dmastp, adcp->samples);
  201e7e:	6af1      	ldr	r1, [r6, #44]	; 0x2c
  adcp->depth    = depth;
  201e80:	2201      	movs	r2, #1
  adcp->grpp     = grpp;
  201e82:	f8df c298 	ldr.w	ip, [pc, #664]	; 20211c <main+0x9ac>
    mode |= STM32_DMA_CR_CIRC;
  201e86:	f443 7380 	orr.w	r3, r3, #256	; 0x100
  adcp->state    = ADC_ACTIVE;
  201e8a:	7030      	strb	r0, [r6, #0]
  adcp->adc->SMPR1 = grpp->smpr1;
  201e8c:	f04f 0b06 	mov.w	fp, #6
  dmaStreamSetMemory0(adcp->dmastp, adcp->samples);
  201e90:	6809      	ldr	r1, [r1, #0]
  adcp->adc->SMPR2 = grpp->smpr2;
  201e92:	f44f 6540 	mov.w	r5, #3072	; 0xc00
  adcp->grpp     = grpp;
  201e96:	f8c6 c010 	str.w	ip, [r6, #16]
  adcp->samples  = samples;
  201e9a:	f8df c284 	ldr.w	ip, [pc, #644]	; 202120 <main+0x9b0>
  adcp->depth    = depth;
  201e9e:	60f2      	str	r2, [r6, #12]
  adcp->samples  = samples;
  201ea0:	f8c6 c008 	str.w	ip, [r6, #8]
  dmaStreamSetMemory0(adcp->dmastp, adcp->samples);
  201ea4:	f8c1 c00c 	str.w	ip, [r1, #12]
  adcp->adc->SQR3  = grpp->sqr3;
  201ea8:	f240 1c43 	movw	ip, #323	; 0x143
  dmaStreamSetTransactionSize(adcp->dmastp, (uint32_t)grpp->num_channels *
  201eac:	f8c1 a004 	str.w	sl, [r1, #4]
  dmaStreamSetMode(adcp->dmastp, mode);
  201eb0:	600b      	str	r3, [r1, #0]
  dmaStreamEnable(adcp->dmastp);
  201eb2:	f8d1 a000 	ldr.w	sl, [r1]
  adcp->adc->SR    = 0;
  201eb6:	6ab3      	ldr	r3, [r6, #40]	; 0x28
  dmaStreamEnable(adcp->dmastp);
  201eb8:	ea4a 0602 	orr.w	r6, sl, r2
  adcp->adc->CR1   = grpp->cr1 | ADC_CR1_OVRIE | ADC_CR1_SCAN;
  201ebc:	f8df a264 	ldr.w	sl, [pc, #612]	; 202124 <main+0x9b4>
  dmaStreamEnable(adcp->dmastp);
  201ec0:	600e      	str	r6, [r1, #0]
  adcp->adc->SR    = 0;
  201ec2:	f8c3 9000 	str.w	r9, [r3]
    adcp->adc->CR2 = cr2;
  201ec6:	498e      	ldr	r1, [pc, #568]	; (202100 <main+0x990>)
  adcp->adc->SMPR1 = grpp->smpr1;
  201ec8:	f8c3 b00c 	str.w	fp, [r3, #12]
  adcp->adc->SMPR2 = grpp->smpr2;
  201ecc:	611d      	str	r5, [r3, #16]
  adcp->adc->SQR1  = grpp->sqr1 | ADC_SQR1_NUM_CH(grpp->num_channels);
  201ece:	f44f 1580 	mov.w	r5, #1048576	; 0x100000
  201ed2:	62dd      	str	r5, [r3, #44]	; 0x2c
  adcp->adc->SQR2  = grpp->sqr2;
  201ed4:	f8c3 9030 	str.w	r9, [r3, #48]	; 0x30
  adcp->adc->SQR3  = grpp->sqr3;
  201ed8:	f8c3 c034 	str.w	ip, [r3, #52]	; 0x34
  adcp->adc->CR1   = grpp->cr1 | ADC_CR1_OVRIE | ADC_CR1_SCAN;
  201edc:	f8c3 a004 	str.w	sl, [r3, #4]
    adcp->adc->CR2 = cr2;
  201ee0:	6099      	str	r1, [r3, #8]
  201ee2:	f389 8811 	msr	BASEPRI, r9
  201ee6:	f38e 8811 	msr	BASEPRI, lr
  if (NULL != gptp->config->callback)
  201eea:	f8d8 3004 	ldr.w	r3, [r8, #4]
  gptp->tim->ARR = (uint32_t)(interval);        /* Time constant.           */
  201eee:	f242 7610 	movw	r6, #10000	; 0x2710
  201ef2:	f8d8 100c 	ldr.w	r1, [r8, #12]
  if (NULL != gptp->config->callback)
  201ef6:	685b      	ldr	r3, [r3, #4]
  osalDbgCheckClassI();
  osalDbgCheck(gptp != NULL);
  osalDbgAssert(gptp->state == GPT_READY,
                "invalid state");

  gptp->state = GPT_CONTINUOUS;
  201ef8:	f888 0000 	strb.w	r0, [r8]
  gptp->tim->ARR = (uint32_t)(interval);        /* Time constant.           */
  201efc:	62ce      	str	r6, [r1, #44]	; 0x2c
  gptp->tim->EGR = STM32_TIM_EGR_UG;            /* Update event.            */
  201efe:	614a      	str	r2, [r1, #20]
  gptp->tim->CNT = 0;                           /* Reset counter.           */
  201f00:	f8c1 9024 	str.w	r9, [r1, #36]	; 0x24
  gptp->tim->SR = 0;                            /* Clear pending IRQs.      */
  201f04:	f8c1 9010 	str.w	r9, [r1, #16]
  if (NULL != gptp->config->callback)
  201f08:	b113      	cbz	r3, 201f10 <main+0x7a0>
    gptp->tim->DIER |= STM32_TIM_DIER_UIE;      /* Update Event IRQ enabled.*/
  201f0a:	68cb      	ldr	r3, [r1, #12]
  201f0c:	4313      	orrs	r3, r2
  201f0e:	60cb      	str	r3, [r1, #12]
  gptp->tim->CR1 = STM32_TIM_CR1_ARPE | STM32_TIM_CR1_URS | STM32_TIM_CR1_CEN;
  201f10:	2385      	movs	r3, #133	; 0x85
  201f12:	2600      	movs	r6, #0
  201f14:	600b      	str	r3, [r1, #0]
  201f16:	f386 8811 	msr	BASEPRI, r6
  201f1a:	f04f 0820 	mov.w	r8, #32
  201f1e:	f388 8811 	msr	BASEPRI, r8
  tp->wabase = (stkalign_t *)wsp;
  201f22:	4b78      	ldr	r3, [pc, #480]	; (202104 <main+0x994>)
  tp->refs      = (trefs_t)1;
  201f24:	f04f 0e01 	mov.w	lr, #1
  tp->state     = CH_STATE_WTSTART;
  201f28:	2102      	movs	r1, #2
  PORT_SETUP_CONTEXT(tp, wsp, tp, pf, arg);
  201f2a:	f8df c1fc 	ldr.w	ip, [pc, #508]	; 202128 <main+0x9b8>
  tp->refs      = (trefs_t)1;
  201f2e:	f883 e122 	strb.w	lr, [r3, #290]	; 0x122
  PORT_SETUP_CONTEXT(tp, wsp, tp, pf, arg);
  201f32:	f103 09dc 	add.w	r9, r3, #220	; 0xdc
  201f36:	4a74      	ldr	r2, [pc, #464]	; (202108 <main+0x998>)
  tp->prio      = prio;
  201f38:	2080      	movs	r0, #128	; 0x80
  tp->name      = name;
  201f3a:	f8df e1f0 	ldr.w	lr, [pc, #496]	; 20212c <main+0x9bc>
  PORT_SETUP_CONTEXT(tp, wsp, tp, pf, arg);
  201f3e:	f8c3 20fc 	str.w	r2, [r3, #252]	; 0xfc
  REG_INSERT(tp);
  201f42:	f503 7280 	add.w	r2, r3, #256	; 0x100
  PORT_SETUP_CONTEXT(tp, wsp, tp, pf, arg);
  201f46:	f8c3 c0dc 	str.w	ip, [r3, #220]	; 0xdc
  tlp->next = (thread_t *)tlp;
  201f4a:	f503 7c94 	add.w	ip, r3, #296	; 0x128
  tp->state     = CH_STATE_WTSTART;
  201f4e:	f883 1120 	strb.w	r1, [r3, #288]	; 0x120
  tqp->next = (thread_t *)tqp;
  201f52:	f503 7196 	add.w	r1, r3, #300	; 0x12c
  tp->name      = name;
  201f56:	f8c3 e118 	str.w	lr, [r3, #280]	; 0x118
  REG_INSERT(tp);
  201f5a:	f8d4 e014 	ldr.w	lr, [r4, #20]
  tp->prio      = prio;
  201f5e:	f8c3 0108 	str.w	r0, [r3, #264]	; 0x108
  tp->realprio  = prio;
  201f62:	f8c3 013c 	str.w	r0, [r3, #316]	; 0x13c
  chSchWakeupS(tp, MSG_OK);
  201f66:	4610      	mov	r0, r2
  PORT_SETUP_CONTEXT(tp, wsp, tp, pf, arg);
  201f68:	f8c3 60e0 	str.w	r6, [r3, #224]	; 0xe0
  tp->flags     = CH_FLAG_MODE_STATIC;
  201f6c:	f883 6121 	strb.w	r6, [r3, #289]	; 0x121
  tp->mtxlist   = NULL;
  201f70:	f8c3 6138 	str.w	r6, [r3, #312]	; 0x138
  tp->epending  = (eventmask_t)0;
  201f74:	f8c3 6134 	str.w	r6, [r3, #308]	; 0x134
  REG_INSERT(tp);
  201f78:	f8c3 4110 	str.w	r4, [r3, #272]	; 0x110
  tp->wabase = (stkalign_t *)wsp;
  201f7c:	f8c3 311c 	str.w	r3, [r3, #284]	; 0x11c
  PORT_SETUP_CONTEXT(tp, wsp, tp, pf, arg);
  201f80:	f8c3 910c 	str.w	r9, [r3, #268]	; 0x10c
  REG_INSERT(tp);
  201f84:	f8c3 e114 	str.w	lr, [r3, #276]	; 0x114
  201f88:	f8ce 2010 	str.w	r2, [lr, #16]
  tlp->next = (thread_t *)tlp;
  201f8c:	f8c3 c128 	str.w	ip, [r3, #296]	; 0x128
  tqp->next = (thread_t *)tqp;
  201f90:	f8c3 112c 	str.w	r1, [r3, #300]	; 0x12c
  tqp->prev = (thread_t *)tqp;
  201f94:	f8c3 1130 	str.w	r1, [r3, #304]	; 0x130
  201f98:	6162      	str	r2, [r4, #20]
  chSchWakeupS(tp, MSG_OK);
  201f9a:	f000 f911 	bl	2021c0 <chSchWakeupS.constprop.42>
  201f9e:	f386 8811 	msr	BASEPRI, r6
        mbp->rdptr = mbp->buffer;
      }
      mbp->cnt--;

      /* If there is a writer waiting then makes it ready.*/
      chThdDequeueNextI(&mbp->qw, MSG_OK);
  201fa2:	f8df 918c 	ldr.w	r9, [pc, #396]	; 202130 <main+0x9c0>
  201fa6:	4644      	mov	r4, r8
  201fa8:	f8dd 8004 	ldr.w	r8, [sp, #4]
  201fac:	e009      	b.n	201fc2 <main+0x852>
  201fae:	f382 8811 	msr	BASEPRI, r2
  201fb2:	f384 8811 	msr	BASEPRI, r4
  201fb6:	210a      	movs	r1, #10
  201fb8:	2008      	movs	r0, #8
  201fba:	f7ff f841 	bl	201040 <chSchGoSleepTimeoutS>
  201fbe:	f386 8811 	msr	BASEPRI, r6
  201fc2:	f384 8811 	msr	BASEPRI, r4
    if (mbp->reset) {
  201fc6:	7d3a      	ldrb	r2, [r7, #20]
  201fc8:	2a00      	cmp	r2, #0
  201fca:	d136      	bne.n	20203a <main+0x8ca>
  201fcc:	693b      	ldr	r3, [r7, #16]
    if (chMBGetUsedCountI(mbp) > (cnt_t)0) {
  201fce:	2b00      	cmp	r3, #0
  201fd0:	dded      	ble.n	201fae <main+0x83e>
      *msgp = *mbp->rdptr++;
  201fd2:	68f9      	ldr	r1, [r7, #12]
      if (mbp->rdptr >= mbp->top) {
  201fd4:	6878      	ldr	r0, [r7, #4]
      *msgp = *mbp->rdptr++;
  201fd6:	1d0a      	adds	r2, r1, #4
  201fd8:	680d      	ldr	r5, [r1, #0]
      if (mbp->rdptr >= mbp->top) {
  201fda:	4282      	cmp	r2, r0
      *msgp = *mbp->rdptr++;
  201fdc:	60fa      	str	r2, [r7, #12]
      if (mbp->rdptr >= mbp->top) {
  201fde:	d301      	bcc.n	201fe4 <main+0x874>
        mbp->rdptr = mbp->buffer;
  201fe0:	683a      	ldr	r2, [r7, #0]
  201fe2:	60fa      	str	r2, [r7, #12]
      mbp->cnt--;
  201fe4:	3b01      	subs	r3, #1
      chThdDequeueNextI(&mbp->qw, MSG_OK);
  201fe6:	4648      	mov	r0, r9
      mbp->cnt--;
  201fe8:	613b      	str	r3, [r7, #16]
      chThdDequeueNextI(&mbp->qw, MSG_OK);
  201fea:	f000 f921 	bl	202230 <chThdDequeueNextI.constprop.35>
      chSchRescheduleS();
  201fee:	f7ff f817 	bl	201020 <chSchRescheduleS>
  201ff2:	f386 8811 	msr	BASEPRI, r6
  201ff6:	f384 8811 	msr	BASEPRI, r4
    if (mbp->reset) {
  201ffa:	7d3b      	ldrb	r3, [r7, #20]
  201ffc:	b913      	cbnz	r3, 202004 <main+0x894>
  201ffe:	693b      	ldr	r3, [r7, #16]
    if (chMBGetUsedCountI(mbp) > (cnt_t)0) {
  202000:	2b00      	cmp	r3, #0
  202002:	dc08      	bgt.n	202016 <main+0x8a6>
  202004:	f386 8811 	msr	BASEPRI, r6
    {

        if ( chMBFetch(&test_mb, &msg1, TIME_IMMEDIATE) == MSG_OK )
        {
          chMBFetch(&test_mb, &msg2, TIME_IMMEDIATE);
          chprintf(((BaseSequentialStream *)&SD7), "ADC values: %d %d\n", msg1, msg2);
  202008:	4940      	ldr	r1, [pc, #256]	; (20210c <main+0x99c>)
  20200a:	462a      	mov	r2, r5
  20200c:	4643      	mov	r3, r8
  20200e:	4840      	ldr	r0, [pc, #256]	; (202110 <main+0x9a0>)
  202010:	f000 f97e 	bl	202310 <chprintf.constprop.0>
  202014:	e7cd      	b.n	201fb2 <main+0x842>
      *msgp = *mbp->rdptr++;
  202016:	68f9      	ldr	r1, [r7, #12]
      if (mbp->rdptr >= mbp->top) {
  202018:	6878      	ldr	r0, [r7, #4]
      *msgp = *mbp->rdptr++;
  20201a:	1d0a      	adds	r2, r1, #4
  20201c:	f8d1 8000 	ldr.w	r8, [r1]
      if (mbp->rdptr >= mbp->top) {
  202020:	4282      	cmp	r2, r0
      *msgp = *mbp->rdptr++;
  202022:	60fa      	str	r2, [r7, #12]
      if (mbp->rdptr >= mbp->top) {
  202024:	d301      	bcc.n	20202a <main+0x8ba>
        mbp->rdptr = mbp->buffer;
  202026:	683a      	ldr	r2, [r7, #0]
  202028:	60fa      	str	r2, [r7, #12]
      mbp->cnt--;
  20202a:	3b01      	subs	r3, #1
      chThdDequeueNextI(&mbp->qw, MSG_OK);
  20202c:	4648      	mov	r0, r9
      mbp->cnt--;
  20202e:	613b      	str	r3, [r7, #16]
      chThdDequeueNextI(&mbp->qw, MSG_OK);
  202030:	f000 f8fe 	bl	202230 <chThdDequeueNextI.constprop.35>
      chSchRescheduleS();
  202034:	f7fe fff4 	bl	201020 <chSchRescheduleS>
  202038:	e7e4      	b.n	202004 <main+0x894>
  20203a:	f386 8811 	msr	BASEPRI, r6
  20203e:	e7b8      	b.n	201fb2 <main+0x842>
                       void *param) {

  osalDbgCheck(dmastp != NULL);

  /* Checks if the stream is already taken.*/
  if ((dma_streams_mask & (1U << dmastp->selfindex)) != 0U)
  202040:	4934      	ldr	r1, [pc, #208]	; (202114 <main+0x9a4>)
      b = dmaStreamAllocate(adcp->dmastp,
  202042:	6af2      	ldr	r2, [r6, #44]	; 0x2c
  202044:	f8d1 e000 	ldr.w	lr, [r1]
  202048:	7a51      	ldrb	r1, [r2, #9]
  20204a:	408b      	lsls	r3, r1
  20204c:	ea13 0f0e 	tst.w	r3, lr
  202050:	d174      	bne.n	20213c <main+0x9cc>
    return true;

  /* Marks the stream as allocated.*/
  dma_isr_redir[dmastp->selfindex].dma_func  = func;
  dma_isr_redir[dmastp->selfindex].dma_param = param;
  202052:	4d31      	ldr	r5, [pc, #196]	; (202118 <main+0x9a8>)
  dma_streams_mask |= (1U << dmastp->selfindex);
  202054:	ea43 030e 	orr.w	r3, r3, lr
  dma_isr_redir[dmastp->selfindex].dma_func  = func;
  202058:	f8df c0d8 	ldr.w	ip, [pc, #216]	; 202134 <main+0x9c4>
  dma_isr_redir[dmastp->selfindex].dma_param = param;
  20205c:	eb05 0ec1 	add.w	lr, r5, r1, lsl #3
  dma_streams_mask |= (1U << dmastp->selfindex);
  202060:	4d2c      	ldr	r5, [pc, #176]	; (202114 <main+0x9a4>)

  /* Enabling DMA clocks required by the current streams set.*/
  if ((dma_streams_mask & STM32_DMA1_STREAMS_MASK) != 0U) {
  202062:	f013 0fff 	tst.w	r3, #255	; 0xff
  dma_streams_mask |= (1U << dmastp->selfindex);
  202066:	602b      	str	r3, [r5, #0]
  dma_isr_redir[dmastp->selfindex].dma_func  = func;
  202068:	4d2b      	ldr	r5, [pc, #172]	; (202118 <main+0x9a8>)
  dma_isr_redir[dmastp->selfindex].dma_param = param;
  20206a:	f8ce 6004 	str.w	r6, [lr, #4]
  dma_isr_redir[dmastp->selfindex].dma_func  = func;
  20206e:	f845 c031 	str.w	ip, [r5, r1, lsl #3]
  if ((dma_streams_mask & STM32_DMA1_STREAMS_MASK) != 0U) {
  202072:	d003      	beq.n	20207c <main+0x90c>
    rccEnableDMA1(false);
  202074:	6b01      	ldr	r1, [r0, #48]	; 0x30
  202076:	f441 1100 	orr.w	r1, r1, #2097152	; 0x200000
  20207a:	6301      	str	r1, [r0, #48]	; 0x30
  }
  if ((dma_streams_mask & STM32_DMA2_STREAMS_MASK) != 0U) {
  20207c:	f413 4f7f 	tst.w	r3, #65280	; 0xff00
  202080:	d004      	beq.n	20208c <main+0x91c>
    rccEnableDMA2(false);
  202082:	491c      	ldr	r1, [pc, #112]	; (2020f4 <main+0x984>)
  202084:	6b0b      	ldr	r3, [r1, #48]	; 0x30
  202086:	f443 0380 	orr.w	r3, r3, #4194304	; 0x400000
  20208a:	630b      	str	r3, [r1, #48]	; 0x30
  }

  /* Putting the stream in a safe state.*/
  dmaStreamDisable(dmastp);
  20208c:	6813      	ldr	r3, [r2, #0]
  20208e:	9d01      	ldr	r5, [sp, #4]
  202090:	6819      	ldr	r1, [r3, #0]
  202092:	f021 011f 	bic.w	r1, r1, #31
  202096:	6019      	str	r1, [r3, #0]
  202098:	6819      	ldr	r1, [r3, #0]
  20209a:	f011 0901 	ands.w	r9, r1, #1
  20209e:	d1fb      	bne.n	202098 <main+0x928>
  2020a0:	7a10      	ldrb	r0, [r2, #8]
  2020a2:	f04f 0c3d 	mov.w	ip, #61	; 0x3d
  2020a6:	9501      	str	r5, [sp, #4]
  dmastp->stream->CR = STM32_DMA_CR_RESET_VALUE;
  dmastp->stream->FCR = STM32_DMA_FCR_RESET_VALUE;
  2020a8:	2121      	movs	r1, #33	; 0x21
  dmaStreamDisable(dmastp);
  2020aa:	6855      	ldr	r5, [r2, #4]
  2020ac:	fa0c fc00 	lsl.w	ip, ip, r0
  NVIC->IP[n] = NVIC_PRIORITY_MASK(prio);
  2020b0:	f8df e084 	ldr.w	lr, [pc, #132]	; 202138 <main+0x9c8>
  NVIC->ICPR[n >> 5U] = 1U << (n & 0x1FU);
  2020b4:	2001      	movs	r0, #1
  2020b6:	f8c5 c000 	str.w	ip, [r5]
  NVIC->IP[n] = NVIC_PRIORITY_MASK(prio);
  2020ba:	f04f 0c60 	mov.w	ip, #96	; 0x60
  dmastp->stream->CR = STM32_DMA_CR_RESET_VALUE;
  2020be:	f8c3 9000 	str.w	r9, [r3]
  dmastp->stream->FCR = STM32_DMA_FCR_RESET_VALUE;
  2020c2:	6159      	str	r1, [r3, #20]

  /* Enables the associated IRQ vector if a callback is defined.*/
  if (func != NULL) {
    nvicEnableVector(dmastp->vector, priority);
  2020c4:	7a91      	ldrb	r1, [r2, #10]
  NVIC->ICPR[n >> 5U] = 1U << (n & 0x1FU);
  2020c6:	ea4f 1951 	mov.w	r9, r1, lsr #5
  2020ca:	f001 021f 	and.w	r2, r1, #31
  NVIC->IP[n] = NVIC_PRIORITY_MASK(prio);
  2020ce:	4471      	add	r1, lr
  NVIC->ICPR[n >> 5U] = 1U << (n & 0x1FU);
  2020d0:	fa00 f202 	lsl.w	r2, r0, r2
  2020d4:	eb0e 0089 	add.w	r0, lr, r9, lsl #2
  NVIC->IP[n] = NVIC_PRIORITY_MASK(prio);
  2020d8:	f881 c300 	strb.w	ip, [r1, #768]	; 0x300
  NVIC->ICPR[n >> 5U] = 1U << (n & 0x1FU);
  2020dc:	f8c0 2180 	str.w	r2, [r0, #384]	; 0x180
  NVIC->ISER[n >> 5U] = 1U << (n & 0x1FU);
  2020e0:	f84e 2029 	str.w	r2, [lr, r9, lsl #2]
  2020e4:	e02b      	b.n	20213e <main+0x9ce>
  2020e6:	bf00      	nop
  2020e8:	2000087c 	.word	0x2000087c
  2020ec:	080028b0 	.word	0x080028b0
  2020f0:	0a7c5ac5 	.word	0x0a7c5ac5
  2020f4:	40023800 	.word	0x40023800
  2020f8:	40020800 	.word	0x40020800
  2020fc:	40020000 	.word	0x40020000
  202100:	1c000301 	.word	0x1c000301
  202104:	20000af0 	.word	0x20000af0
  202108:	002002e5 	.word	0x002002e5
  20210c:	080028d0 	.word	0x080028d0
  202110:	20000c38 	.word	0x20000c38
  202114:	20000ac0 	.word	0x20000ac0
  202118:	20000a40 	.word	0x20000a40
  20211c:	08002870 	.word	0x08002870
  202120:	20000acc 	.word	0x20000acc
  202124:	04000100 	.word	0x04000100
  202128:	00201711 	.word	0x00201711
  20212c:	080028c8 	.word	0x080028c8
  202130:	20000d24 	.word	0x20000d24
  202134:	00201481 	.word	0x00201481
  202138:	e000e100 	.word	0xe000e100
  20213c:	6813      	ldr	r3, [r2, #0]
      rccEnableADC1(FALSE);
  20213e:	4a1a      	ldr	r2, [pc, #104]	; (2021a8 <main+0xa38>)
    adcp->adc->CR1 = 0;
  202140:	2100      	movs	r1, #0
      dmaStreamSetPeripheral(adcp->dmastp, &ADC1->DR);
  202142:	481a      	ldr	r0, [pc, #104]	; (2021ac <main+0xa3c>)
    ADC->CCR = (ADC->CCR & (ADC_CCR_TSVREFE | ADC_CCR_VBATE)) |
  202144:	f8df e070 	ldr.w	lr, [pc, #112]	; 2021b8 <main+0xa48>
      dmaStreamSetPeripheral(adcp->dmastp, &ADC1->DR);
  202148:	6098      	str	r0, [r3, #8]
    adcp->adc->CR2 = ADC_CR2_ADON;
  20214a:	2001      	movs	r0, #1
      rccEnableADC1(FALSE);
  20214c:	6c53      	ldr	r3, [r2, #68]	; 0x44
  20214e:	f443 7380 	orr.w	r3, r3, #256	; 0x100
  202152:	6453      	str	r3, [r2, #68]	; 0x44
    ADC->CCR = (ADC->CCR & (ADC_CCR_TSVREFE | ADC_CCR_VBATE)) |
  202154:	f8de 3004 	ldr.w	r3, [lr, #4]
    adcp->adc->CR1 = 0;
  202158:	6ab2      	ldr	r2, [r6, #40]	; 0x28
    ADC->CCR = (ADC->CCR & (ADC_CCR_TSVREFE | ADC_CCR_VBATE)) |
  20215a:	f403 0340 	and.w	r3, r3, #12582912	; 0xc00000
  20215e:	f443 3380 	orr.w	r3, r3, #65536	; 0x10000
  202162:	f8ce 3004 	str.w	r3, [lr, #4]
    adcp->adc->CR1 = 0;
  202166:	6051      	str	r1, [r2, #4]
    adcp->adc->CR2 = 0;
  202168:	6091      	str	r1, [r2, #8]
    adcp->adc->CR2 = ADC_CR2_ADON;
  20216a:	6090      	str	r0, [r2, #8]
  20216c:	e66f      	b.n	201e4e <main+0x6de>
      rccEnableTIM4(FALSE);
  20216e:	4a0e      	ldr	r2, [pc, #56]	; (2021a8 <main+0xa38>)
  NVIC->ICPR[n >> 5U] = 1U << (n & 0x1FU);
  202170:	f04f 4e80 	mov.w	lr, #1073741824	; 0x40000000
  NVIC->IP[n] = NVIC_PRIORITY_MASK(prio);
  202174:	490e      	ldr	r1, [pc, #56]	; (2021b0 <main+0xa40>)
  202176:	f04f 0c70 	mov.w	ip, #112	; 0x70
  20217a:	6c13      	ldr	r3, [r2, #64]	; 0x40
  20217c:	f043 0304 	orr.w	r3, r3, #4
  202180:	6413      	str	r3, [r2, #64]	; 0x40
      gptp->clock = STM32_TIMCLK1;
  202182:	f240 4337 	movw	r3, #1079	; 0x437
      rccResetTIM4();
  202186:	6a10      	ldr	r0, [r2, #32]
  202188:	f040 0004 	orr.w	r0, r0, #4
  20218c:	6210      	str	r0, [r2, #32]
  20218e:	f8c2 9020 	str.w	r9, [r2, #32]
      gptp->clock = STM32_TIMCLK1;
  202192:	4a08      	ldr	r2, [pc, #32]	; (2021b4 <main+0xa44>)
  202194:	f881 c31e 	strb.w	ip, [r1, #798]	; 0x31e
  NVIC->ICPR[n >> 5U] = 1U << (n & 0x1FU);
  202198:	f8c1 e180 	str.w	lr, [r1, #384]	; 0x180
  20219c:	f8c8 2008 	str.w	r2, [r8, #8]
  NVIC->ISER[n >> 5U] = 1U << (n & 0x1FU);
  2021a0:	f8c1 e000 	str.w	lr, [r1]
  2021a4:	e637      	b.n	201e16 <main+0x6a6>
  2021a6:	bf00      	nop
  2021a8:	40023800 	.word	0x40023800
  2021ac:	4001204c 	.word	0x4001204c
  2021b0:	e000e100 	.word	0xe000e100
  2021b4:	066ff300 	.word	0x066ff300
  2021b8:	40012300 	.word	0x40012300
  2021bc:	00000000 	.word	0x00000000

002021c0 <chSchWakeupS.constprop.42>:
  thread_t *otp = currp;
  2021c0:	4b15      	ldr	r3, [pc, #84]	; (202218 <chSchWakeupS.constprop.42+0x58>)
  if (ntp->prio <= otp->prio) {
  2021c2:	6881      	ldr	r1, [r0, #8]
void chSchWakeupS(thread_t *ntp, msg_t msg) {
  2021c4:	b4f0      	push	{r4, r5, r6, r7}
  ntp->u.rdymsg = msg;
  2021c6:	2600      	movs	r6, #0
  thread_t *otp = currp;
  2021c8:	699d      	ldr	r5, [r3, #24]
void chSchWakeupS(thread_t *ntp, msg_t msg) {
  2021ca:	4604      	mov	r4, r0
  ntp->u.rdymsg = msg;
  2021cc:	6246      	str	r6, [r0, #36]	; 0x24
  if (ntp->prio <= otp->prio) {
  2021ce:	68a8      	ldr	r0, [r5, #8]
  2021d0:	4281      	cmp	r1, r0
  2021d2:	d80c      	bhi.n	2021ee <chSchWakeupS.constprop.42+0x2e>
  tp->state = CH_STATE_READY;
  2021d4:	f884 6020 	strb.w	r6, [r4, #32]
    cp = cp->queue.next;
  2021d8:	681b      	ldr	r3, [r3, #0]
  } while (cp->prio >= tp->prio);
  2021da:	689a      	ldr	r2, [r3, #8]
  2021dc:	4291      	cmp	r1, r2
  2021de:	d9fb      	bls.n	2021d8 <chSchWakeupS.constprop.42+0x18>
  tp->queue.prev             = cp->queue.prev;
  2021e0:	685a      	ldr	r2, [r3, #4]
  tp->queue.next             = cp;
  2021e2:	6023      	str	r3, [r4, #0]
  tp->queue.prev             = cp->queue.prev;
  2021e4:	6062      	str	r2, [r4, #4]
  tp->queue.prev->queue.next = tp;
  2021e6:	6014      	str	r4, [r2, #0]
  cp->queue.prev             = tp;
  2021e8:	605c      	str	r4, [r3, #4]
}
  2021ea:	bcf0      	pop	{r4, r5, r6, r7}
  2021ec:	4770      	bx	lr
  cp = (thread_t *)&ch.rlist.queue;
  2021ee:	461a      	mov	r2, r3
  tp->state = CH_STATE_READY;
  2021f0:	f885 6020 	strb.w	r6, [r5, #32]
    cp = cp->queue.next;
  2021f4:	6812      	ldr	r2, [r2, #0]
  } while (cp->prio >= tp->prio);
  2021f6:	6891      	ldr	r1, [r2, #8]
  2021f8:	4288      	cmp	r0, r1
  2021fa:	d9fb      	bls.n	2021f4 <chSchWakeupS.constprop.42+0x34>
  tp->queue.prev             = cp->queue.prev;
  2021fc:	6856      	ldr	r6, [r2, #4]
    ntp->state = CH_STATE_CURRENT;
  2021fe:	2701      	movs	r7, #1
  tp->queue.next             = cp;
  202200:	602a      	str	r2, [r5, #0]
    chSysSwitch(ntp, otp);
  202202:	4629      	mov	r1, r5
  tp->queue.prev             = cp->queue.prev;
  202204:	606e      	str	r6, [r5, #4]
    chSysSwitch(ntp, otp);
  202206:	4620      	mov	r0, r4
  tp->queue.prev->queue.next = tp;
  202208:	6035      	str	r5, [r6, #0]
  cp->queue.prev             = tp;
  20220a:	6055      	str	r5, [r2, #4]
    ntp->state = CH_STATE_CURRENT;
  20220c:	f884 7020 	strb.w	r7, [r4, #32]
    currp = ntp;
  202210:	619c      	str	r4, [r3, #24]
}
  202212:	bcf0      	pop	{r4, r5, r6, r7}
    chSysSwitch(ntp, otp);
  202214:	f7fe b85e 	b.w	2002d4 <_port_switch>
  202218:	20000c98 	.word	0x20000c98
  20221c:	00000000 	.word	0x00000000

00202220 <chTMStartMeasurementX.constprop.38>:
  return DWT->CYCCNT;
  202220:	4b01      	ldr	r3, [pc, #4]	; (202228 <chTMStartMeasurementX.constprop.38+0x8>)
  202222:	685b      	ldr	r3, [r3, #4]
  tmp->last = chSysGetRealtimeCounterX();
  202224:	6083      	str	r3, [r0, #8]
  202226:	4770      	bx	lr
  202228:	e0001000 	.word	0xe0001000
  20222c:	00000000 	.word	0x00000000

00202230 <chThdDequeueNextI.constprop.35>:
  return (bool)(tqp->next != (const thread_t *)tqp);
  202230:	6802      	ldr	r2, [r0, #0]
 *
 * @iclass
 */
void chThdDequeueNextI(threads_queue_t *tqp, msg_t msg) {

  if (queue_notempty(tqp)) {
  202232:	4290      	cmp	r0, r2
  202234:	d00a      	beq.n	20224c <chThdDequeueNextI.constprop.35+0x1c>
  202236:	4603      	mov	r3, r0
  tqp->next             = tp->queue.next;
  202238:	6811      	ldr	r1, [r2, #0]
  tp = queue_fifo_remove(tqp);

  chDbgAssert(tp->state == CH_STATE_QUEUED, "invalid state");

  tp->u.rdymsg = msg;
  (void) chSchReadyI(tp);
  20223a:	4610      	mov	r0, r2
void chThdDequeueNextI(threads_queue_t *tqp, msg_t msg) {
  20223c:	b410      	push	{r4}
  tp->u.rdymsg = msg;
  20223e:	2400      	movs	r4, #0
  202240:	6019      	str	r1, [r3, #0]
  tqp->next->queue.prev = (thread_t *)tqp;
  202242:	604b      	str	r3, [r1, #4]
  202244:	6254      	str	r4, [r2, #36]	; 0x24
    chThdDoDequeueNextI(tqp, msg);
  }
}
  202246:	bc10      	pop	{r4}
  (void) chSchReadyI(tp);
  202248:	f7ff b8b2 	b.w	2013b0 <chSchReadyI>
  20224c:	4770      	bx	lr
  20224e:	bf00      	nop

00202250 <chEvtBroadcastFlagsI.constprop.34>:
 * @param[in] esp       pointer to the @p event_source_t structure
 * @param[in] flags     the flags set to be added to the listener flags mask
 *
 * @iclass
 */
void chEvtBroadcastFlagsI(event_source_t *esp, eventflags_t flags) {
  202250:	b5f8      	push	{r3, r4, r5, r6, r7, lr}
  event_listener_t *elp;

  chDbgCheckClassI();
  chDbgCheck(esp != NULL);

  elp = esp->next;
  202252:	4f17      	ldr	r7, [pc, #92]	; (2022b0 <chEvtBroadcastFlagsI.constprop.34+0x60>)
  202254:	f857 4f04 	ldr.w	r4, [r7, #4]!
  /*lint -save -e9087 -e740 [11.3, 1.3] Cast required by list handling.*/
  while (elp != (event_listener_t *)esp) {
  202258:	42bc      	cmp	r4, r7
  20225a:	d021      	beq.n	2022a0 <chEvtBroadcastFlagsI.constprop.34+0x50>
  20225c:	4605      	mov	r5, r0
  /* Test on the AND/OR conditions wait states.*/
  if (((tp->state == CH_STATE_WTOREVT) &&
       ((tp->epending & tp->u.ewmask) != (eventmask_t)0)) ||
      ((tp->state == CH_STATE_WTANDEVT) &&
       ((tp->epending & tp->u.ewmask) == tp->u.ewmask))) {
    tp->u.rdymsg = MSG_OK;
  20225e:	2600      	movs	r6, #0
  202260:	e002      	b.n	202268 <chEvtBroadcastFlagsI.constprop.34+0x18>
    elp = elp->next;
  202262:	6824      	ldr	r4, [r4, #0]
  while (elp != (event_listener_t *)esp) {
  202264:	42bc      	cmp	r4, r7
  202266:	d01b      	beq.n	2022a0 <chEvtBroadcastFlagsI.constprop.34+0x50>
    elp->flags |= flags;
  202268:	68e3      	ldr	r3, [r4, #12]
  20226a:	432b      	orrs	r3, r5
  20226c:	60e3      	str	r3, [r4, #12]
    if ((flags == (eventflags_t)0) ||
  20226e:	b115      	cbz	r5, 202276 <chEvtBroadcastFlagsI.constprop.34+0x26>
        ((elp->flags & elp->wflags) != (eventflags_t)0)) {
  202270:	6922      	ldr	r2, [r4, #16]
    if ((flags == (eventflags_t)0) ||
  202272:	4213      	tst	r3, r2
  202274:	d0f5      	beq.n	202262 <chEvtBroadcastFlagsI.constprop.34+0x12>
      chEvtSignalI(elp->listener, elp->events);
  202276:	6860      	ldr	r0, [r4, #4]
  tp->epending |= events;
  202278:	68a3      	ldr	r3, [r4, #8]
  20227a:	6b41      	ldr	r1, [r0, #52]	; 0x34
  if (((tp->state == CH_STATE_WTOREVT) &&
  20227c:	f890 2020 	ldrb.w	r2, [r0, #32]
  tp->epending |= events;
  202280:	430b      	orrs	r3, r1
  if (((tp->state == CH_STATE_WTOREVT) &&
  202282:	2a0a      	cmp	r2, #10
  tp->epending |= events;
  202284:	6343      	str	r3, [r0, #52]	; 0x34
  if (((tp->state == CH_STATE_WTOREVT) &&
  202286:	d00c      	beq.n	2022a2 <chEvtBroadcastFlagsI.constprop.34+0x52>
       ((tp->epending & tp->u.ewmask) != (eventmask_t)0)) ||
  202288:	2a0b      	cmp	r2, #11
  20228a:	d1ea      	bne.n	202262 <chEvtBroadcastFlagsI.constprop.34+0x12>
       ((tp->epending & tp->u.ewmask) == tp->u.ewmask))) {
  20228c:	6a42      	ldr	r2, [r0, #36]	; 0x24
      ((tp->state == CH_STATE_WTANDEVT) &&
  20228e:	ea32 0303 	bics.w	r3, r2, r3
  202292:	d1e6      	bne.n	202262 <chEvtBroadcastFlagsI.constprop.34+0x12>
    tp->u.rdymsg = MSG_OK;
  202294:	6246      	str	r6, [r0, #36]	; 0x24
    (void) chSchReadyI(tp);
  202296:	f7ff f88b 	bl	2013b0 <chSchReadyI>
    elp = elp->next;
  20229a:	6824      	ldr	r4, [r4, #0]
  while (elp != (event_listener_t *)esp) {
  20229c:	42bc      	cmp	r4, r7
  20229e:	d1e3      	bne.n	202268 <chEvtBroadcastFlagsI.constprop.34+0x18>
  2022a0:	bdf8      	pop	{r3, r4, r5, r6, r7, pc}
       ((tp->epending & tp->u.ewmask) != (eventmask_t)0)) ||
  2022a2:	6a42      	ldr	r2, [r0, #36]	; 0x24
  if (((tp->state == CH_STATE_WTOREVT) &&
  2022a4:	4213      	tst	r3, r2
  2022a6:	d0dc      	beq.n	202262 <chEvtBroadcastFlagsI.constprop.34+0x12>
    tp->u.rdymsg = MSG_OK;
  2022a8:	6246      	str	r6, [r0, #36]	; 0x24
    (void) chSchReadyI(tp);
  2022aa:	f7ff f881 	bl	2013b0 <chSchReadyI>
  2022ae:	e7f4      	b.n	20229a <chEvtBroadcastFlagsI.constprop.34+0x4a>
  2022b0:	20000c38 	.word	0x20000c38
	...

002022c0 <chMBPostI.constprop.31>:
msg_t chMBPostI(mailbox_t *mbp, msg_t msg) {
  2022c0:	b538      	push	{r3, r4, r5, lr}
  if (mbp->reset) {
  2022c2:	4b10      	ldr	r3, [pc, #64]	; (202304 <chMBPostI.constprop.31+0x44>)
  2022c4:	7d1a      	ldrb	r2, [r3, #20]
  2022c6:	b9ba      	cbnz	r2, 2022f8 <chMBPostI.constprop.31+0x38>
  2022c8:	681d      	ldr	r5, [r3, #0]
  2022ca:	6859      	ldr	r1, [r3, #4]
 */
static inline cnt_t chMBGetFreeCountI(const mailbox_t *mbp) {

  chDbgCheckClassI();

  return chMBGetSizeI(mbp) - chMBGetUsedCountI(mbp);
  2022cc:	691a      	ldr	r2, [r3, #16]
  return (cnt_t)(mbp->top - mbp->buffer);
  2022ce:	1b4c      	subs	r4, r1, r5
  return chMBGetSizeI(mbp) - chMBGetUsedCountI(mbp);
  2022d0:	ebc2 02a4 	rsb	r2, r2, r4, asr #2
  if (chMBGetFreeCountI(mbp) > (cnt_t)0) {
  2022d4:	2a00      	cmp	r2, #0
  2022d6:	dd12      	ble.n	2022fe <chMBPostI.constprop.31+0x3e>
    *mbp->wrptr++ = msg;
  2022d8:	689c      	ldr	r4, [r3, #8]
  2022da:	1d22      	adds	r2, r4, #4
  2022dc:	609a      	str	r2, [r3, #8]
    if (mbp->wrptr >= mbp->top) {
  2022de:	4291      	cmp	r1, r2
    *mbp->wrptr++ = msg;
  2022e0:	6020      	str	r0, [r4, #0]
    mbp->cnt++;
  2022e2:	691a      	ldr	r2, [r3, #16]
    chThdDequeueNextI(&mbp->qr, MSG_OK);
  2022e4:	4808      	ldr	r0, [pc, #32]	; (202308 <chMBPostI.constprop.31+0x48>)
    mbp->cnt++;
  2022e6:	f102 0201 	add.w	r2, r2, #1
      mbp->wrptr = mbp->buffer;
  2022ea:	bf98      	it	ls
  2022ec:	609d      	strls	r5, [r3, #8]
    mbp->cnt++;
  2022ee:	611a      	str	r2, [r3, #16]
    chThdDequeueNextI(&mbp->qr, MSG_OK);
  2022f0:	f7ff ff9e 	bl	202230 <chThdDequeueNextI.constprop.35>
    return MSG_OK;
  2022f4:	2000      	movs	r0, #0
  2022f6:	bd38      	pop	{r3, r4, r5, pc}
    return MSG_RESET;
  2022f8:	f06f 0001 	mvn.w	r0, #1
  2022fc:	bd38      	pop	{r3, r4, r5, pc}
  return MSG_TIMEOUT;
  2022fe:	f04f 30ff 	mov.w	r0, #4294967295
}
  202302:	bd38      	pop	{r3, r4, r5, pc}
  202304:	20000d0c 	.word	0x20000d0c
  202308:	20000d2c 	.word	0x20000d2c
  20230c:	00000000 	.word	0x00000000

00202310 <chprintf.constprop.0>:
 * @param[in] chp       pointer to a @p BaseSequentialStream implementing object
 * @param[in] fmt       formatting string
 *
 * @api
 */
int chprintf(BaseSequentialStream *chp, const char *fmt, ...) {
  202310:	b40e      	push	{r1, r2, r3}
  202312:	e92d 4ff0 	stmdb	sp!, {r4, r5, r6, r7, r8, r9, sl, fp, lr}
  202316:	b086      	sub	sp, #24
  int n = 0;
  202318:	2300      	movs	r3, #0
    c = *fmt++;
  20231a:	f04f 0941 	mov.w	r9, #65	; 0x41
  20231e:	f8df a280 	ldr.w	sl, [pc, #640]	; 2025a0 <chprintf.constprop.0+0x290>
  va_list ap;
  int formatted_bytes;

  va_start(ap, fmt);
  202322:	ad10      	add	r5, sp, #64	; 0x40
    c = *fmt++;
  202324:	4c9d      	ldr	r4, [pc, #628]	; (20259c <chprintf.constprop.0+0x28c>)
  int n = 0;
  202326:	9300      	str	r3, [sp, #0]
  va_start(ap, fmt);
  202328:	9502      	str	r5, [sp, #8]
  20232a:	f8cd 9004 	str.w	r9, [sp, #4]
      n++;
  20232e:	9a00      	ldr	r2, [sp, #0]
  202330:	4626      	mov	r6, r4
      streamPut(chp, (uint8_t)c);
  202332:	f8da 3000 	ldr.w	r3, [sl]
      n++;
  202336:	3201      	adds	r2, #1
      streamPut(chp, (uint8_t)c);
  202338:	9901      	ldr	r1, [sp, #4]
  20233a:	689b      	ldr	r3, [r3, #8]
  20233c:	4898      	ldr	r0, [pc, #608]	; (2025a0 <chprintf.constprop.0+0x290>)
      n++;
  20233e:	9200      	str	r2, [sp, #0]
      streamPut(chp, (uint8_t)c);
  202340:	4798      	blx	r3
  202342:	7823      	ldrb	r3, [r4, #0]
  202344:	9301      	str	r3, [sp, #4]
    if (c == 0)
  202346:	9b01      	ldr	r3, [sp, #4]
    c = *fmt++;
  202348:	1c74      	adds	r4, r6, #1
    if (c == 0)
  20234a:	2b00      	cmp	r3, #0
  20234c:	f000 8120 	beq.w	202590 <chprintf.constprop.0+0x280>
    if (c != '%') {
  202350:	2b25      	cmp	r3, #37	; 0x25
  202352:	d1ec      	bne.n	20232e <chprintf.constprop.0+0x1e>
    if (*fmt == '-') {
  202354:	7871      	ldrb	r1, [r6, #1]
  202356:	292d      	cmp	r1, #45	; 0x2d
  202358:	f000 814b 	beq.w	2025f2 <chprintf.constprop.0+0x2e2>
    left_align = FALSE;
  20235c:	f04f 0c00 	mov.w	ip, #0
    if (*fmt == '0') {
  202360:	2930      	cmp	r1, #48	; 0x30
  202362:	f000 8141 	beq.w	2025e8 <chprintf.constprop.0+0x2d8>
    filler = ' ';
  202366:	f04f 0820 	mov.w	r8, #32
  20236a:	1c62      	adds	r2, r4, #1
    width = 0;
  20236c:	2400      	movs	r4, #0
  20236e:	e005      	b.n	20237c <chprintf.constprop.0+0x6c>
        c = va_arg(ap, int);
  202370:	782b      	ldrb	r3, [r5, #0]
  202372:	3504      	adds	r5, #4
  202374:	f812 1b01 	ldrb.w	r1, [r2], #1
      width = width * 10 + c;
  202378:	eb03 0440 	add.w	r4, r3, r0, lsl #1
      if (c >= '0' && c <= '9')
  20237c:	f1a1 0330 	sub.w	r3, r1, #48	; 0x30
      c = *fmt++;
  202380:	4616      	mov	r6, r2
      width = width * 10 + c;
  202382:	eb04 0084 	add.w	r0, r4, r4, lsl #2
      if (c >= '0' && c <= '9')
  202386:	b2db      	uxtb	r3, r3
  202388:	2b09      	cmp	r3, #9
  20238a:	d9f3      	bls.n	202374 <chprintf.constprop.0+0x64>
      else if (c == '*')
  20238c:	292a      	cmp	r1, #42	; 0x2a
  20238e:	d0ef      	beq.n	202370 <chprintf.constprop.0+0x60>
    if (c == '.') {
  202390:	292e      	cmp	r1, #46	; 0x2e
  202392:	f04f 0200 	mov.w	r2, #0
  202396:	d04a      	beq.n	20242e <chprintf.constprop.0+0x11e>
    if (c == 'l' || c == 'L') {
  202398:	f001 03df 	and.w	r3, r1, #223	; 0xdf
  20239c:	2b4c      	cmp	r3, #76	; 0x4c
  20239e:	d155      	bne.n	20244c <chprintf.constprop.0+0x13c>
      if (*fmt)
  2023a0:	7833      	ldrb	r3, [r6, #0]
  2023a2:	9301      	str	r3, [sp, #4]
  2023a4:	b11b      	cbz	r3, 2023ae <chprintf.constprop.0+0x9e>
        c = *fmt++;
  2023a6:	4619      	mov	r1, r3
  2023a8:	3601      	adds	r6, #1
  2023aa:	7833      	ldrb	r3, [r6, #0]
  2023ac:	9301      	str	r3, [sp, #4]
    switch (c) {
  2023ae:	f1a1 0344 	sub.w	r3, r1, #68	; 0x44
  2023b2:	2b34      	cmp	r3, #52	; 0x34
  2023b4:	f200 810c 	bhi.w	2025d0 <chprintf.constprop.0+0x2c0>
  2023b8:	e8df f013 	tbh	[pc, r3, lsl #1]
  2023bc:	010a018f 	.word	0x010a018f
  2023c0:	010a010a 	.word	0x010a010a
  2023c4:	018f010a 	.word	0x018f010a
  2023c8:	010a010a 	.word	0x010a010a
  2023cc:	010a010a 	.word	0x010a010a
  2023d0:	014d010a 	.word	0x014d010a
  2023d4:	010a010a 	.word	0x010a010a
  2023d8:	010a010a 	.word	0x010a010a
  2023dc:	0152010a 	.word	0x0152010a
  2023e0:	010a010a 	.word	0x010a010a
  2023e4:	010a0187 	.word	0x010a0187
  2023e8:	010a010a 	.word	0x010a010a
  2023ec:	010a010a 	.word	0x010a010a
  2023f0:	010a010a 	.word	0x010a010a
  2023f4:	010a010a 	.word	0x010a010a
  2023f8:	00f6010a 	.word	0x00f6010a
  2023fc:	010a018f 	.word	0x010a018f
  202400:	010a010a 	.word	0x010a010a
  202404:	018f010a 	.word	0x018f010a
  202408:	010a010a 	.word	0x010a010a
  20240c:	010a010a 	.word	0x010a010a
  202410:	014d010a 	.word	0x014d010a
  202414:	010a010a 	.word	0x010a010a
  202418:	0089010a 	.word	0x0089010a
  20241c:	0152010a 	.word	0x0152010a
  202420:	010a010a 	.word	0x010a010a
  202424:	0187      	.short	0x0187
          c = va_arg(ap, int);
  202426:	782b      	ldrb	r3, [r5, #0]
  202428:	3504      	adds	r5, #4
        precision += c;
  20242a:	eb03 0240 	add.w	r2, r3, r0, lsl #1
        c = *fmt++;
  20242e:	f816 1b01 	ldrb.w	r1, [r6], #1
        precision *= 10;
  202432:	eb02 0082 	add.w	r0, r2, r2, lsl #2
        if (c >= '0' && c <= '9')
  202436:	f1a1 0330 	sub.w	r3, r1, #48	; 0x30
  20243a:	b2db      	uxtb	r3, r3
  20243c:	2b09      	cmp	r3, #9
  20243e:	d9f4      	bls.n	20242a <chprintf.constprop.0+0x11a>
        else if (c == '*')
  202440:	292a      	cmp	r1, #42	; 0x2a
  202442:	d0f0      	beq.n	202426 <chprintf.constprop.0+0x116>
    if (c == 'l' || c == 'L') {
  202444:	f001 03df 	and.w	r3, r1, #223	; 0xdf
  202448:	2b4c      	cmp	r3, #76	; 0x4c
  20244a:	d0a9      	beq.n	2023a0 <chprintf.constprop.0+0x90>
      is_long = (c >= 'A') && (c <= 'Z');
  20244c:	f1a1 0341 	sub.w	r3, r1, #65	; 0x41
    switch (c) {
  202450:	f1a1 0044 	sub.w	r0, r1, #68	; 0x44
      is_long = (c >= 'A') && (c <= 'Z');
  202454:	b2db      	uxtb	r3, r3
    switch (c) {
  202456:	2834      	cmp	r0, #52	; 0x34
  202458:	f200 80b8 	bhi.w	2025cc <chprintf.constprop.0+0x2bc>
  20245c:	e8df f010 	tbh	[pc, r0, lsl #1]
  202460:	00b6010a 	.word	0x00b6010a
  202464:	00b600b6 	.word	0x00b600b6
  202468:	010a00b6 	.word	0x010a00b6
  20246c:	00b600b6 	.word	0x00b600b6
  202470:	00b600b6 	.word	0x00b600b6
  202474:	010300b6 	.word	0x010300b6
  202478:	00b600b6 	.word	0x00b600b6
  20247c:	00b600b6 	.word	0x00b600b6
  202480:	00ce00b6 	.word	0x00ce00b6
  202484:	00b600b6 	.word	0x00b600b6
  202488:	00b60138 	.word	0x00b60138
  20248c:	00b600b6 	.word	0x00b600b6
  202490:	00b600b6 	.word	0x00b600b6
  202494:	00b600b6 	.word	0x00b600b6
  202498:	00b600b6 	.word	0x00b600b6
  20249c:	00a200b6 	.word	0x00a200b6
  2024a0:	00b6010a 	.word	0x00b6010a
  2024a4:	00b600b6 	.word	0x00b600b6
  2024a8:	010a00b6 	.word	0x010a00b6
  2024ac:	00b600b6 	.word	0x00b600b6
  2024b0:	00b600b6 	.word	0x00b600b6
  2024b4:	010300b6 	.word	0x010300b6
  2024b8:	00b600b6 	.word	0x00b600b6
  2024bc:	003500b6 	.word	0x003500b6
  2024c0:	00ce00b6 	.word	0x00ce00b6
  2024c4:	00b600b6 	.word	0x00b600b6
  2024c8:	0138      	.short	0x0138
  2024ca:	7833      	ldrb	r3, [r6, #0]
  2024cc:	9301      	str	r3, [sp, #4]
      if ((s = va_arg(ap, char *)) == 0)
  2024ce:	682f      	ldr	r7, [r5, #0]
  2024d0:	3504      	adds	r5, #4
  2024d2:	2f00      	cmp	r7, #0
  2024d4:	f000 8111 	beq.w	2026fa <chprintf.constprop.0+0x3ea>
      for (p = s; *p && (--precision >= 0); p++)
  2024d8:	783b      	ldrb	r3, [r7, #0]
      if (precision == 0)
  2024da:	2a00      	cmp	r2, #0
  2024dc:	f040 810a 	bne.w	2026f4 <chprintf.constprop.0+0x3e4>
      for (p = s; *p && (--precision >= 0); p++)
  2024e0:	2b00      	cmp	r3, #0
  2024e2:	f000 811c 	beq.w	20271e <chprintf.constprop.0+0x40e>
  2024e6:	f647 73fe 	movw	r3, #32766	; 0x7ffe
  2024ea:	463a      	mov	r2, r7
  2024ec:	e001      	b.n	2024f2 <chprintf.constprop.0+0x1e2>
  2024ee:	3b01      	subs	r3, #1
  2024f0:	d403      	bmi.n	2024fa <chprintf.constprop.0+0x1ea>
  2024f2:	f812 1f01 	ldrb.w	r1, [r2, #1]!
  2024f6:	2900      	cmp	r1, #0
  2024f8:	d1f9      	bne.n	2024ee <chprintf.constprop.0+0x1de>
  2024fa:	1bd2      	subs	r2, r2, r7
      filler = ' ';
  2024fc:	f04f 0820 	mov.w	r8, #32
    if ((width -= i) < 0)
  202500:	1aa4      	subs	r4, r4, r2
  202502:	f102 39ff 	add.w	r9, r2, #4294967295
  202506:	d45b      	bmi.n	2025c0 <chprintf.constprop.0+0x2b0>
    if (left_align == FALSE)
  202508:	f1bc 0f00 	cmp.w	ip, #0
  20250c:	d168      	bne.n	2025e0 <chprintf.constprop.0+0x2d0>
  20250e:	f1c4 0b00 	rsb	fp, r4, #0
    if (width < 0) {
  202512:	2c00      	cmp	r4, #0
  202514:	d063      	beq.n	2025de <chprintf.constprop.0+0x2ce>
      if (*s == '-' && filler == '0') {
  202516:	783b      	ldrb	r3, [r7, #0]
  202518:	2b2d      	cmp	r3, #45	; 0x2d
  20251a:	d103      	bne.n	202524 <chprintf.constprop.0+0x214>
  20251c:	f1b8 0f30 	cmp.w	r8, #48	; 0x30
  202520:	f000 80f0 	beq.w	202704 <chprintf.constprop.0+0x3f4>
        streamPut(chp, (uint8_t)filler);
  202524:	f8da 3000 	ldr.w	r3, [sl]
  202528:	4641      	mov	r1, r8
  20252a:	4650      	mov	r0, sl
  20252c:	689b      	ldr	r3, [r3, #8]
  20252e:	4798      	blx	r3
      } while (++width != 0);
  202530:	f11b 0b01 	adds.w	fp, fp, #1
  202534:	d1f6      	bne.n	202524 <chprintf.constprop.0+0x214>
  202536:	9b00      	ldr	r3, [sp, #0]
    while (--i >= 0) {
  202538:	f1b9 0f00 	cmp.w	r9, #0
  20253c:	4423      	add	r3, r4
  20253e:	9300      	str	r3, [sp, #0]
  202540:	f6ff af01 	blt.w	202346 <chprintf.constprop.0+0x36>
  202544:	465c      	mov	r4, fp
  202546:	46cb      	mov	fp, r9
      streamPut(chp, (uint8_t)*s++);
  202548:	f8da 3000 	ldr.w	r3, [sl]
    while (--i >= 0) {
  20254c:	f10b 3bff 	add.w	fp, fp, #4294967295
      streamPut(chp, (uint8_t)*s++);
  202550:	f817 1b01 	ldrb.w	r1, [r7], #1
  202554:	4650      	mov	r0, sl
  202556:	689b      	ldr	r3, [r3, #8]
  202558:	4798      	blx	r3
    while (--i >= 0) {
  20255a:	f1bb 3fff 	cmp.w	fp, #4294967295
  20255e:	d1f3      	bne.n	202548 <chprintf.constprop.0+0x238>
  202560:	9b00      	ldr	r3, [sp, #0]
  202562:	3301      	adds	r3, #1
  202564:	444b      	add	r3, r9
  202566:	9300      	str	r3, [sp, #0]
    while (width) {
  202568:	2c00      	cmp	r4, #0
  20256a:	f43f aeec 	beq.w	202346 <chprintf.constprop.0+0x36>
  20256e:	4627      	mov	r7, r4
      streamPut(chp, (uint8_t)filler);
  202570:	f8da 3000 	ldr.w	r3, [sl]
  202574:	4641      	mov	r1, r8
  202576:	4650      	mov	r0, sl
  202578:	689b      	ldr	r3, [r3, #8]
  20257a:	4798      	blx	r3
    while (width) {
  20257c:	3f01      	subs	r7, #1
  20257e:	d1f7      	bne.n	202570 <chprintf.constprop.0+0x260>
  202580:	9b00      	ldr	r3, [sp, #0]
  202582:	4423      	add	r3, r4
    c = *fmt++;
  202584:	1c74      	adds	r4, r6, #1
  202586:	9300      	str	r3, [sp, #0]
    if (c == 0)
  202588:	9b01      	ldr	r3, [sp, #4]
  20258a:	2b00      	cmp	r3, #0
  20258c:	f47f aee0 	bne.w	202350 <chprintf.constprop.0+0x40>
  formatted_bytes = chvprintf(chp, fmt, ap);
  va_end(ap);

  return formatted_bytes;
}
  202590:	9800      	ldr	r0, [sp, #0]
  202592:	b006      	add	sp, #24
  202594:	e8bd 4ff0 	ldmia.w	sp!, {r4, r5, r6, r7, r8, r9, sl, fp, lr}
  202598:	b003      	add	sp, #12
  20259a:	4770      	bx	lr
  20259c:	080028d1 	.word	0x080028d1
  2025a0:	20000c38 	.word	0x20000c38
  2025a4:	7833      	ldrb	r3, [r6, #0]
  2025a6:	9301      	str	r3, [sp, #4]
      *p++ = va_arg(ap, int);
  2025a8:	682b      	ldr	r3, [r5, #0]
  2025aa:	af06      	add	r7, sp, #24
  2025ac:	3504      	adds	r5, #4
  2025ae:	f04f 0900 	mov.w	r9, #0
  2025b2:	2201      	movs	r2, #1
      filler = ' ';
  2025b4:	f04f 0820 	mov.w	r8, #32
      *p++ = va_arg(ap, int);
  2025b8:	f807 3d0c 	strb.w	r3, [r7, #-12]!
    if ((width -= i) < 0)
  2025bc:	1aa4      	subs	r4, r4, r2
  2025be:	d5a3      	bpl.n	202508 <chprintf.constprop.0+0x1f8>
    while (--i >= 0) {
  2025c0:	f1b9 0f00 	cmp.w	r9, #0
  2025c4:	f6ff aebf 	blt.w	202346 <chprintf.constprop.0+0x36>
      width = 0;
  2025c8:	2400      	movs	r4, #0
  2025ca:	e7bc      	b.n	202546 <chprintf.constprop.0+0x236>
  2025cc:	7833      	ldrb	r3, [r6, #0]
  2025ce:	9301      	str	r3, [sp, #4]
      *p++ = c;
  2025d0:	af06      	add	r7, sp, #24
  2025d2:	f04f 0900 	mov.w	r9, #0
  2025d6:	2201      	movs	r2, #1
  2025d8:	f807 1d0c 	strb.w	r1, [r7, #-12]!
  2025dc:	e7ee      	b.n	2025bc <chprintf.constprop.0+0x2ac>
    if (width < 0) {
  2025de:	465c      	mov	r4, fp
    while (--i >= 0) {
  2025e0:	f1b9 0f00 	cmp.w	r9, #0
  2025e4:	daaf      	bge.n	202546 <chprintf.constprop.0+0x236>
  2025e6:	e7bf      	b.n	202568 <chprintf.constprop.0+0x258>
  2025e8:	7861      	ldrb	r1, [r4, #1]
      filler = '0';
  2025ea:	f04f 0830 	mov.w	r8, #48	; 0x30
      fmt++;
  2025ee:	3401      	adds	r4, #1
  2025f0:	e6bb      	b.n	20236a <chprintf.constprop.0+0x5a>
      fmt++;
  2025f2:	1cb4      	adds	r4, r6, #2
  2025f4:	78b1      	ldrb	r1, [r6, #2]
      left_align = TRUE;
  2025f6:	f04f 0c01 	mov.w	ip, #1
  2025fa:	e6b1      	b.n	202360 <chprintf.constprop.0+0x50>
    switch (c) {
  2025fc:	f04f 0e0a 	mov.w	lr, #10
      if (is_long)
  202600:	2b19      	cmp	r3, #25
  202602:	d934      	bls.n	20266e <chprintf.constprop.0+0x35e>
        l = va_arg(ap, unsigned int);
  202604:	682f      	ldr	r7, [r5, #0]
  202606:	3504      	adds	r5, #4
  202608:	7833      	ldrb	r3, [r6, #0]
  20260a:	9301      	str	r3, [sp, #4]
  q = p + MAX_FILLER;
  20260c:	f10d 0117 	add.w	r1, sp, #23
  202610:	e000      	b.n	202614 <chprintf.constprop.0+0x304>
  } while ((ll /= radix) != 0);
  202612:	4601      	mov	r1, r0
    *--q = i;
  202614:	1e48      	subs	r0, r1, #1
    i = (int)(l % radix);
  202616:	fbb7 f2fe 	udiv	r2, r7, lr
  20261a:	fb0e 7912 	mls	r9, lr, r2, r7
    l /= radix;
  20261e:	4617      	mov	r7, r2
    i += '0';
  202620:	f109 0330 	add.w	r3, r9, #48	; 0x30
    if (i > '9')
  202624:	2b39      	cmp	r3, #57	; 0x39
      i += 'A' - '0' - 10;
  202626:	bfc8      	it	gt
  202628:	f109 0337 	addgt.w	r3, r9, #55	; 0x37
    *--q = i;
  20262c:	b2db      	uxtb	r3, r3
  20262e:	f801 3c01 	strb.w	r3, [r1, #-1]
  } while ((ll /= radix) != 0);
  202632:	2a00      	cmp	r2, #0
  202634:	d1ed      	bne.n	202612 <chprintf.constprop.0+0x302>
  i = (int)(p + MAX_FILLER - q);
  202636:	f10d 0217 	add.w	r2, sp, #23
  20263a:	af03      	add	r7, sp, #12
  20263c:	1a12      	subs	r2, r2, r0
  20263e:	46be      	mov	lr, r7
  202640:	4410      	add	r0, r2
  202642:	e001      	b.n	202648 <chprintf.constprop.0+0x338>
  202644:	f811 3b01 	ldrb.w	r3, [r1], #1
  while (--i);
  202648:	4288      	cmp	r0, r1
    *p++ = *q++;
  20264a:	f80e 3b01 	strb.w	r3, [lr], #1
  while (--i);
  20264e:	d1f9      	bne.n	202644 <chprintf.constprop.0+0x334>
  202650:	f102 39ff 	add.w	r9, r2, #4294967295
  202654:	e7b2      	b.n	2025bc <chprintf.constprop.0+0x2ac>
    switch (c) {
  202656:	f04f 0e08 	mov.w	lr, #8
        l = va_arg(ap, unsigned long);
  20265a:	682f      	ldr	r7, [r5, #0]
  20265c:	3504      	adds	r5, #4
  20265e:	e7d5      	b.n	20260c <chprintf.constprop.0+0x2fc>
    switch (c) {
  202660:	f04f 0e0a 	mov.w	lr, #10
  202664:	e7f9      	b.n	20265a <chprintf.constprop.0+0x34a>
      if (is_long)
  202666:	2b19      	cmp	r3, #25
    switch (c) {
  202668:	f04f 0e08 	mov.w	lr, #8
      if (is_long)
  20266c:	d8ca      	bhi.n	202604 <chprintf.constprop.0+0x2f4>
  20266e:	7833      	ldrb	r3, [r6, #0]
  202670:	9301      	str	r3, [sp, #4]
  202672:	e7f2      	b.n	20265a <chprintf.constprop.0+0x34a>
      if (is_long)
  202674:	2b19      	cmp	r3, #25
  202676:	d92e      	bls.n	2026d6 <chprintf.constprop.0+0x3c6>
        l = va_arg(ap, int);
  202678:	6829      	ldr	r1, [r5, #0]
  20267a:	3504      	adds	r5, #4
  20267c:	7833      	ldrb	r3, [r6, #0]
      if (l < 0) {
  20267e:	2900      	cmp	r1, #0
  202680:	9301      	str	r3, [sp, #4]
  202682:	db2e      	blt.n	2026e2 <chprintf.constprop.0+0x3d2>
    p = tmpbuf;
  202684:	af03      	add	r7, sp, #12
  202686:	463a      	mov	r2, r7
  q = p + MAX_FILLER;
  202688:	f102 0b0b 	add.w	fp, r2, #11
  20268c:	4658      	mov	r0, fp
    i = (int)(l % radix);
  20268e:	4b26      	ldr	r3, [pc, #152]	; (202728 <chprintf.constprop.0+0x418>)
  202690:	fba3 e301 	umull	lr, r3, r3, r1
  202694:	08db      	lsrs	r3, r3, #3
  202696:	eb03 0983 	add.w	r9, r3, r3, lsl #2
  20269a:	469e      	mov	lr, r3
  20269c:	eba1 0349 	sub.w	r3, r1, r9, lsl #1
  } while ((ll /= radix) != 0);
  2026a0:	4671      	mov	r1, lr
    i += '0';
  2026a2:	3330      	adds	r3, #48	; 0x30
    *--q = i;
  2026a4:	b2db      	uxtb	r3, r3
  2026a6:	f800 3d01 	strb.w	r3, [r0, #-1]!
  } while ((ll /= radix) != 0);
  2026aa:	2900      	cmp	r1, #0
  2026ac:	d1ef      	bne.n	20268e <chprintf.constprop.0+0x37e>
  i = (int)(p + MAX_FILLER - q);
  2026ae:	ebab 0100 	sub.w	r1, fp, r0
  2026b2:	4411      	add	r1, r2
  2026b4:	e001      	b.n	2026ba <chprintf.constprop.0+0x3aa>
  2026b6:	f810 3f01 	ldrb.w	r3, [r0, #1]!
    *p++ = *q++;
  2026ba:	f802 3b01 	strb.w	r3, [r2], #1
  while (--i);
  2026be:	428a      	cmp	r2, r1
  2026c0:	d1f9      	bne.n	2026b6 <chprintf.constprop.0+0x3a6>
  2026c2:	1bd2      	subs	r2, r2, r7
  2026c4:	f102 39ff 	add.w	r9, r2, #4294967295
  2026c8:	e778      	b.n	2025bc <chprintf.constprop.0+0x2ac>
    switch (c) {
  2026ca:	f04f 0e10 	mov.w	lr, #16
  2026ce:	e7c4      	b.n	20265a <chprintf.constprop.0+0x34a>
  2026d0:	f04f 0e10 	mov.w	lr, #16
  2026d4:	e794      	b.n	202600 <chprintf.constprop.0+0x2f0>
  2026d6:	7833      	ldrb	r3, [r6, #0]
  2026d8:	9301      	str	r3, [sp, #4]
        l = va_arg(ap, long);
  2026da:	6829      	ldr	r1, [r5, #0]
  2026dc:	3504      	adds	r5, #4
      if (l < 0) {
  2026de:	2900      	cmp	r1, #0
  2026e0:	dad0      	bge.n	202684 <chprintf.constprop.0+0x374>
        *p++ = '-';
  2026e2:	f04f 032d 	mov.w	r3, #45	; 0x2d
        l = -l;
  2026e6:	4249      	negs	r1, r1
        *p++ = '-';
  2026e8:	f10d 020d 	add.w	r2, sp, #13
  2026ec:	af03      	add	r7, sp, #12
  2026ee:	f88d 300c 	strb.w	r3, [sp, #12]
  2026f2:	e7c9      	b.n	202688 <chprintf.constprop.0+0x378>
      for (p = s; *p && (--precision >= 0); p++)
  2026f4:	b19b      	cbz	r3, 20271e <chprintf.constprop.0+0x40e>
  2026f6:	1e53      	subs	r3, r2, #1
  2026f8:	e6f7      	b.n	2024ea <chprintf.constprop.0+0x1da>
      if (precision == 0)
  2026fa:	b90a      	cbnz	r2, 202700 <chprintf.constprop.0+0x3f0>
        precision = 32767;
  2026fc:	f647 72ff 	movw	r2, #32767	; 0x7fff
        s = "(null)";
  202700:	4f0a      	ldr	r7, [pc, #40]	; (20272c <chprintf.constprop.0+0x41c>)
  202702:	e7f8      	b.n	2026f6 <chprintf.constprop.0+0x3e6>
        n++;
  202704:	9a00      	ldr	r2, [sp, #0]
        streamPut(chp, (uint8_t)*s++);
  202706:	212d      	movs	r1, #45	; 0x2d
  202708:	f8da 3000 	ldr.w	r3, [sl]
  20270c:	4650      	mov	r0, sl
        n++;
  20270e:	3201      	adds	r2, #1
        streamPut(chp, (uint8_t)*s++);
  202710:	3701      	adds	r7, #1
  202712:	689b      	ldr	r3, [r3, #8]
  202714:	f109 39ff 	add.w	r9, r9, #4294967295
        n++;
  202718:	9200      	str	r2, [sp, #0]
        streamPut(chp, (uint8_t)*s++);
  20271a:	4798      	blx	r3
  20271c:	e702      	b.n	202524 <chprintf.constprop.0+0x214>
      for (p = s; *p && (--precision >= 0); p++)
  20271e:	f04f 39ff 	mov.w	r9, #4294967295
  202722:	f04f 0820 	mov.w	r8, #32
  202726:	e6ef      	b.n	202508 <chprintf.constprop.0+0x1f8>
  202728:	cccccccd 	.word	0xcccccccd
  20272c:	08002904 	.word	0x08002904
